(iapp.models
World
p0
(dp1
S'tiles'
p2
(lp3
(lp4
S'S'
p5
ag5
ag5
ag5
ag5
ag5
ag5
ag5
ag5
ag5
ag5
ag5
ag5
ag5
ag5
ag5
ag5
ag5
ag5
ag5
ag5
ag5
ag5
ag5
ag5
ag5
ag5
ag5
ag5
ag5
ag5
ag5
ag5
ag5
ag5
ag5
ag5
ag5
ag5
ag5
ag5
ag5
ag5
ag5
ag5
ag5
ag5
ag5
ag5
ag5
ag5
ag5
ag5
ag5
ag5
ag5
ag5
ag5
ag5
ag5
ag5
ag5
ag5
ag5
ag5
ag5
ag5
ag5
ag5
ag5
ag5
ag5
ag5
ag5
ag5
ag5
ag5
ag5
ag5
ag5
ag5
ag5
ag5
ag5
ag5
ag5
ag5
ag5
ag5
ag5
ag5
ag5
ag5
ag5
ag5
ag5
ag5
ag5
ag5
ag5
aa(lp6
g5
ag5
ag5
ag5
ag5
ag5
ag5
ag5
ag5
ag5
ag5
ag5
ag5
ag5
ag5
ag5
ag5
aS'P'
p7
aS'H'
p8
ag8
aS'D'
p9
ag9
ag9
ag7
aS'W'
p10
ag10
ag5
ag5
ag5
ag5
ag5
ag5
ag5
ag5
ag5
ag5
ag5
ag5
ag5
ag5
ag5
ag5
ag5
ag5
aS'J'
p11
ag7
ag5
ag5
ag5
ag5
ag5
ag5
ag5
ag5
ag5
ag5
ag5
ag5
ag5
ag5
ag5
ag5
ag5
ag5
ag5
ag5
ag5
ag5
ag5
ag5
ag5
ag5
ag5
ag5
ag5
ag5
ag5
ag5
ag5
ag5
ag5
ag5
ag5
ag5
ag5
ag5
ag5
ag5
ag5
ag5
ag5
ag5
ag5
ag5
ag5
ag5
ag5
ag5
ag5
ag5
aa(lp12
g5
ag5
ag5
ag5
ag5
ag5
ag5
ag5
ag5
ag5
ag5
ag5
ag5
ag5
ag5
ag5
ag5
ag7
ag7
ag8
ag8
ag5
ag7
ag9
ag7
ag10
ag7
ag5
ag5
ag5
ag5
ag8
ag8
ag5
ag5
ag5
ag5
ag5
ag5
ag7
ag5
ag5
ag5
ag5
ag7
ag11
ag7
ag5
ag5
ag5
ag5
ag5
ag5
ag5
ag5
ag5
ag5
ag5
ag5
ag5
ag5
ag5
ag5
ag5
ag5
ag5
ag5
ag5
ag5
ag5
ag5
ag5
ag5
ag5
ag5
ag5
ag5
ag5
ag5
ag5
ag5
ag5
ag5
ag5
ag5
ag5
ag5
ag5
ag5
ag5
ag5
ag5
ag5
ag5
ag5
ag5
ag5
ag5
ag5
ag5
aa(lp13
g5
ag5
ag5
ag5
ag5
ag5
ag5
ag5
ag5
ag5
ag5
ag5
ag5
ag5
ag7
ag11
ag8
aS'M'
p14
ag8
ag5
ag8
ag7
ag7
ag7
ag9
ag9
ag5
ag7
ag5
ag5
ag8
ag8
ag5
ag7
ag7
ag5
ag7
ag5
ag7
ag7
ag5
ag5
ag7
ag10
ag10
ag11
ag7
ag7
ag5
ag5
ag5
ag5
ag5
ag5
ag5
ag5
ag5
ag5
ag5
ag5
ag5
ag5
ag5
ag5
ag5
ag5
ag5
ag5
ag5
ag5
ag5
ag5
ag5
ag5
ag5
ag5
ag5
ag5
ag5
ag5
ag5
ag5
ag5
ag5
ag5
ag5
ag5
ag5
ag5
ag5
ag5
ag5
ag5
ag5
ag5
ag5
ag5
ag5
ag5
ag5
aa(lp15
g5
ag5
ag5
ag5
ag5
ag5
ag5
ag5
ag5
ag5
ag5
ag5
ag5
ag5
ag11
ag8
ag8
ag14
ag7
ag5
ag5
ag11
ag7
ag7
ag9
ag5
ag5
ag5
ag7
ag5
ag7
ag5
ag8
ag8
ag11
ag11
ag5
ag7
ag7
ag7
ag5
ag7
ag14
ag5
aS'C'
p16
ag9
ag9
ag11
ag9
ag7
ag5
ag5
ag5
ag5
ag5
ag5
ag5
ag5
ag5
ag5
ag5
ag5
ag5
ag5
ag5
ag5
ag5
ag5
ag5
ag5
ag5
ag5
ag5
ag5
ag5
ag5
ag5
ag5
ag5
ag5
ag5
ag5
ag5
ag5
ag5
ag5
ag5
ag5
ag5
ag5
ag5
ag5
ag5
ag5
ag5
ag5
ag5
ag5
ag5
ag5
aa(lp17
g5
ag5
ag5
ag5
ag5
ag11
ag11
ag5
ag5
ag7
ag5
ag5
ag5
ag11
ag7
ag8
ag8
ag14
ag7
ag7
ag7
ag7
ag11
ag7
ag7
ag5
ag5
ag5
ag5
ag10
ag5
ag8
ag8
ag8
ag8
ag11
ag7
ag5
ag5
aS'F'
p18
ag7
ag7
ag14
ag8
ag7
ag9
ag9
ag9
ag11
ag5
ag5
ag5
ag5
ag5
ag5
ag5
ag5
ag5
ag5
ag5
ag5
ag5
ag5
ag5
ag5
ag5
ag5
ag5
ag5
ag5
ag5
ag5
ag5
ag5
ag5
ag5
ag5
ag5
ag5
ag5
ag5
ag5
ag5
ag5
ag5
ag5
ag5
ag5
ag5
ag5
ag5
ag5
ag5
ag5
ag5
ag5
ag5
ag5
ag5
ag5
aa(lp19
g5
ag5
ag5
ag5
ag5
ag11
ag11
ag7
ag11
ag7
ag5
ag10
ag10
ag7
ag5
ag10
ag8
ag10
ag5
ag7
ag7
ag5
ag16
ag11
ag7
ag7
ag5
ag7
ag10
ag10
ag5
ag7
ag7
ag8
ag8
ag8
ag5
ag5
ag5
ag5
ag18
ag7
ag7
ag8
ag7
ag9
ag9
ag11
ag9
ag7
ag5
ag5
ag5
ag5
ag5
ag5
ag5
ag5
ag5
ag5
ag5
ag5
ag5
ag5
ag5
ag5
ag5
ag5
ag5
ag5
ag5
ag5
ag5
ag5
ag5
ag5
ag5
ag5
ag5
ag5
ag5
ag5
ag5
ag5
ag5
ag5
ag5
ag5
ag5
ag5
ag5
ag5
ag5
ag5
ag5
ag5
ag5
ag5
ag5
ag5
aa(lp20
g5
ag5
ag5
ag5
ag5
ag5
ag11
ag11
ag5
ag8
ag8
ag5
ag10
ag10
ag10
ag5
ag7
ag7
ag7
ag7
ag5
ag7
ag7
ag8
ag8
ag5
ag10
ag7
ag5
ag10
ag5
ag5
ag7
ag7
ag10
ag8
ag11
ag5
ag10
ag18
ag18
ag7
ag8
ag10
ag7
ag9
ag9
ag7
ag7
ag5
ag5
ag5
ag5
ag5
ag5
ag5
ag5
ag5
ag5
ag5
ag5
ag5
ag5
ag5
ag5
ag5
ag5
ag5
ag5
ag5
ag5
ag5
ag5
ag5
ag5
ag5
ag5
ag5
ag5
ag5
ag5
ag5
ag5
ag5
ag5
ag5
ag5
ag5
ag5
ag5
ag5
ag5
ag5
ag5
ag5
ag5
ag5
ag5
ag5
ag5
aa(lp21
g5
ag5
ag5
ag5
ag5
ag14
ag14
ag5
ag5
ag5
ag8
ag8
ag7
ag10
ag7
ag10
ag18
ag7
ag10
ag10
ag10
ag7
ag7
ag10
ag8
ag10
ag7
ag7
ag5
ag5
ag5
ag5
ag5
ag16
ag7
ag7
ag7
ag10
ag10
ag14
ag5
ag7
ag7
ag10
ag7
ag9
ag18
ag7
ag5
ag7
ag5
ag5
ag5
ag5
ag5
ag5
ag5
ag5
ag5
ag5
ag5
ag5
ag5
ag5
ag5
ag5
ag5
ag5
ag5
ag5
ag5
ag5
ag5
ag5
ag5
ag5
ag5
ag5
ag5
ag5
ag5
ag5
ag5
ag5
ag5
ag5
ag5
ag5
ag5
ag5
ag5
ag5
ag5
ag5
ag5
ag5
ag5
ag5
ag5
ag5
aa(lp22
g5
ag5
ag5
ag5
ag5
ag5
ag14
ag5
ag5
ag5
ag16
ag8
ag7
ag7
ag5
ag5
ag7
ag7
ag7
ag7
ag7
ag7
ag7
ag8
ag10
ag7
ag7
ag5
ag7
ag5
ag5
ag5
ag5
ag7
ag11
ag7
ag5
ag7
ag14
ag14
ag14
ag14
ag7
ag14
ag11
ag7
ag5
ag5
ag5
ag5
ag5
ag5
ag5
ag5
ag5
ag5
ag5
ag5
ag5
ag5
ag5
ag5
ag5
ag5
ag5
ag5
ag5
ag5
ag5
ag5
ag5
ag5
ag5
ag5
ag5
ag5
ag5
ag5
ag5
ag5
ag5
ag5
ag5
ag5
ag5
ag5
ag5
ag5
ag5
ag5
ag5
ag5
ag5
ag5
ag5
ag5
ag5
ag5
ag5
ag5
aa(lp23
g5
ag5
ag5
ag5
ag5
ag5
ag5
ag14
ag7
ag5
ag7
ag7
ag8
ag8
ag5
ag5
ag7
ag7
ag16
ag7
ag10
ag16
ag7
ag8
ag7
ag5
ag5
ag7
ag7
ag7
ag5
ag5
ag5
ag14
ag10
ag9
ag7
ag14
ag18
ag7
ag14
ag18
ag7
ag14
ag11
ag5
ag5
ag5
ag5
ag5
ag5
ag5
ag5
ag5
ag5
ag5
ag5
ag5
ag5
ag5
ag5
ag5
ag5
ag5
ag5
ag5
ag5
ag5
ag5
ag5
ag5
ag5
ag5
ag5
ag5
ag5
ag5
ag5
ag5
ag5
ag5
ag5
ag5
ag5
ag5
ag5
ag5
ag5
ag5
ag5
ag5
ag5
ag5
ag5
ag5
ag5
ag5
ag5
ag5
ag5
aa(lp24
g5
ag5
ag5
ag5
ag5
ag5
ag5
ag5
ag5
ag7
ag7
ag5
ag7
ag10
ag5
ag5
ag5
ag7
ag5
ag14
ag7
ag7
ag11
ag10
ag8
ag5
ag5
ag7
ag7
ag7
ag7
ag7
ag7
ag7
ag9
ag9
ag14
ag18
ag8
ag9
ag14
ag14
ag14
ag7
ag7
ag5
ag5
ag5
ag5
ag5
ag5
ag5
ag5
ag5
ag5
ag5
ag5
ag5
ag5
ag5
ag5
ag5
ag5
ag5
ag5
ag5
ag5
ag5
ag5
ag5
ag5
ag5
ag5
ag5
ag5
ag5
ag5
ag5
ag5
ag5
ag5
ag5
ag5
ag5
ag5
ag5
ag5
ag5
ag5
ag5
ag5
ag5
ag5
ag5
ag5
ag5
ag5
ag5
ag5
ag5
aa(lp25
g5
ag5
ag5
ag5
ag5
ag5
ag5
ag5
ag5
ag5
ag7
ag7
ag5
ag7
ag5
ag5
ag5
ag5
ag5
ag5
ag5
ag5
ag11
ag5
ag5
ag8
ag5
ag10
ag10
ag7
ag5
ag7
ag7
ag8
ag9
ag9
ag14
ag8
ag14
ag14
ag9
ag14
ag16
ag7
ag5
ag5
ag5
ag5
ag5
ag5
ag5
ag5
ag5
ag5
ag5
ag5
ag5
ag5
ag5
ag5
ag5
ag5
ag5
ag5
ag5
ag5
ag5
ag5
ag5
ag5
ag5
ag5
ag5
ag5
ag5
ag5
ag5
ag5
ag5
ag5
ag5
ag5
ag5
ag5
ag5
ag5
ag5
ag5
ag5
ag5
ag5
ag5
ag5
ag5
ag5
ag5
ag5
ag5
ag5
ag5
aa(lp26
g5
ag5
ag5
ag5
ag5
ag5
ag5
ag5
ag5
ag5
ag5
ag5
ag5
ag5
ag5
ag5
ag5
ag5
ag5
ag5
ag5
ag5
ag5
ag11
ag5
ag14
ag14
ag5
ag7
ag5
ag5
ag7
ag10
ag8
ag8
ag9
ag14
ag5
ag14
ag8
ag8
ag14
ag5
ag7
ag5
ag5
ag5
ag5
ag5
ag5
ag5
ag5
ag5
ag5
ag5
ag5
ag5
ag5
ag5
ag5
ag5
ag5
ag5
ag5
ag5
ag5
ag5
ag5
ag5
ag5
ag5
ag5
ag5
ag5
ag5
ag5
ag5
ag5
ag5
ag5
ag5
ag5
ag5
ag5
ag5
ag5
ag5
ag5
ag5
ag5
ag5
ag5
ag5
ag5
ag5
ag5
ag5
ag5
ag5
ag5
aa(lp27
g5
ag5
ag5
ag5
ag5
ag5
ag5
ag5
ag5
ag5
ag5
ag5
ag5
ag5
ag5
ag5
ag5
ag5
ag5
ag5
ag5
ag5
ag5
ag5
ag9
ag9
ag9
ag11
ag5
ag8
ag7
ag10
ag5
ag10
ag7
ag14
ag7
ag7
ag14
ag8
ag7
ag7
ag7
ag7
ag5
ag5
ag5
ag5
ag5
ag5
ag5
ag5
ag5
ag5
ag5
ag5
ag5
ag5
ag5
ag5
ag5
ag5
ag5
ag5
ag5
ag5
ag5
ag5
ag5
ag5
ag5
ag5
ag5
ag5
ag5
ag5
ag5
ag5
ag5
ag5
ag5
ag5
ag5
ag5
ag5
ag5
ag5
ag5
ag5
ag5
ag5
ag5
ag5
ag5
ag5
ag5
ag5
ag5
ag5
ag5
aa(lp28
g5
ag5
ag5
ag5
ag5
ag5
ag5
ag5
ag5
ag5
ag5
ag5
ag5
ag5
ag5
ag5
ag5
ag5
ag5
ag5
ag5
ag5
ag5
ag5
ag9
ag9
ag5
ag5
ag8
ag7
ag8
ag5
ag8
ag7
ag18
ag18
ag10
ag7
ag14
ag7
ag7
ag8
ag7
ag8
ag5
ag5
ag5
ag5
ag5
ag5
ag5
ag5
ag5
ag5
ag5
ag5
ag5
ag5
ag5
ag5
ag5
ag5
ag5
ag5
ag5
ag5
ag5
ag5
ag5
ag5
ag5
ag5
ag5
ag5
ag5
ag5
ag5
ag5
ag5
ag5
ag5
ag5
ag5
ag5
ag5
ag5
ag5
ag5
ag5
ag5
ag5
ag5
ag5
ag5
ag5
ag5
ag5
ag5
ag5
ag5
aa(lp29
g5
ag5
ag5
ag5
ag5
ag5
ag5
ag5
ag5
ag5
ag5
ag5
ag5
ag5
ag5
ag5
ag5
ag5
ag5
ag5
ag5
ag5
ag5
ag5
ag5
ag7
ag7
ag5
ag16
ag8
ag9
ag8
ag8
ag8
ag7
ag7
ag14
ag18
ag8
ag8
ag5
ag8
ag8
ag5
ag5
ag5
ag5
ag5
ag5
ag5
ag5
ag5
ag5
ag5
ag5
ag5
ag5
ag7
ag5
ag5
ag5
ag5
ag5
ag5
ag5
ag5
ag5
ag5
ag5
ag5
ag5
ag5
ag5
ag5
ag5
ag5
ag5
ag5
ag5
ag5
ag5
ag5
ag5
ag5
ag5
ag5
ag5
ag5
ag5
ag5
ag5
ag5
ag5
ag5
ag5
ag5
ag5
ag5
ag5
ag5
aa(lp30
g5
ag5
ag5
ag5
ag5
ag5
ag5
ag5
ag5
ag5
ag5
ag5
ag5
ag5
ag5
ag5
ag5
ag5
ag5
ag5
ag5
ag5
ag5
ag5
ag5
ag5
ag7
ag8
ag8
ag8
ag8
ag8
ag7
ag8
ag7
ag16
ag18
ag14
ag8
ag8
ag8
ag10
ag8
ag10
ag9
ag5
ag14
ag5
ag5
ag5
ag5
ag5
ag5
ag5
ag5
ag7
ag7
ag7
ag7
ag5
ag5
ag5
ag5
ag5
ag5
ag5
ag5
ag5
ag5
ag5
ag5
ag5
ag5
ag5
ag5
ag5
ag5
ag5
ag5
ag5
ag5
ag5
ag5
ag5
ag5
ag5
ag5
ag5
ag5
ag5
ag5
ag5
ag5
ag5
ag5
ag5
ag5
ag5
ag5
ag5
aa(lp31
g5
ag5
ag9
ag5
ag5
ag7
ag5
ag5
ag5
ag5
ag5
ag5
ag5
ag5
ag5
ag5
ag5
ag5
ag5
ag5
ag5
ag5
ag5
ag5
ag5
ag5
ag5
ag9
ag9
ag8
ag8
ag7
ag7
ag7
ag7
ag8
ag8
ag10
ag10
ag11
ag7
ag8
ag9
ag9
ag9
ag7
ag5
ag7
ag5
ag16
ag5
ag5
ag5
ag5
ag7
ag10
ag5
ag5
ag18
ag7
ag5
ag10
ag5
ag5
ag5
ag5
ag5
ag5
ag5
ag5
ag5
ag5
ag5
ag5
ag5
ag5
ag5
ag5
ag5
ag5
ag5
ag5
ag5
ag5
ag5
ag5
ag5
ag5
ag5
ag5
ag5
ag5
ag5
ag5
ag5
ag5
ag5
ag5
ag5
ag5
aa(lp32
g5
ag9
ag9
ag9
ag9
ag7
ag7
ag7
ag5
ag5
ag5
ag5
ag5
ag5
ag5
ag5
ag5
ag5
ag5
ag5
ag5
ag5
ag5
ag5
ag5
ag5
ag16
ag7
ag7
ag8
ag8
ag7
ag18
ag7
ag7
ag8
ag10
ag10
ag11
ag10
ag16
ag7
ag7
ag8
ag8
ag9
ag16
ag7
ag7
ag5
ag7
ag11
ag18
ag7
ag7
ag10
ag10
ag5
ag7
ag5
ag10
ag5
ag7
ag5
ag5
ag5
ag5
ag5
ag5
ag5
ag5
ag5
ag5
ag5
ag5
ag5
ag5
ag5
ag5
ag5
ag5
ag5
ag5
ag5
ag5
ag5
ag5
ag5
ag5
ag5
ag5
ag5
ag5
ag5
ag5
ag5
ag5
ag5
ag5
ag5
aa(lp33
g5
ag5
ag9
ag5
ag8
ag8
ag8
ag5
ag5
ag7
ag10
ag5
ag5
ag5
ag5
ag5
ag5
ag5
ag5
ag5
ag5
ag7
ag5
ag11
ag11
ag11
ag7
ag10
ag10
ag14
ag14
ag14
ag7
ag7
ag7
ag7
ag7
ag7
ag8
ag8
ag8
ag7
ag18
ag8
ag8
ag9
ag7
ag7
ag7
ag18
ag11
ag18
ag18
ag7
ag5
ag5
ag5
ag5
ag5
ag5
ag5
ag5
ag5
ag7
ag5
ag5
ag5
ag5
ag5
ag5
ag5
ag5
ag5
ag5
ag5
ag5
ag5
ag5
ag5
ag5
ag5
ag5
ag5
ag5
ag5
ag5
ag5
ag5
ag5
ag5
ag5
ag5
ag5
ag5
ag5
ag5
ag5
ag5
ag5
ag5
aa(lp34
g5
ag5
ag5
ag5
ag8
ag8
ag14
ag7
ag7
ag7
ag11
ag10
ag5
ag5
ag5
ag5
ag5
ag5
ag5
ag10
ag9
ag5
ag10
ag7
ag11
ag11
ag10
ag7
ag14
ag10
ag14
ag10
ag10
ag7
ag16
ag7
ag7
ag8
ag8
ag8
ag8
ag7
ag8
ag8
ag8
ag8
ag9
ag7
ag7
ag7
ag11
ag7
ag18
ag7
ag5
ag5
ag5
ag7
ag7
ag5
ag5
ag5
ag5
ag10
ag5
ag5
ag5
ag5
ag5
ag5
ag5
ag5
ag5
ag5
ag5
ag5
ag5
ag5
ag5
ag5
ag5
ag5
ag5
ag5
ag5
ag5
ag5
ag5
ag5
ag5
ag5
ag5
ag5
ag5
ag5
ag5
ag5
ag5
ag5
ag5
aa(lp35
g5
ag5
ag5
ag5
ag18
ag8
ag14
ag14
ag7
ag7
ag8
ag8
ag11
ag7
ag5
ag5
ag5
ag9
ag9
ag9
ag5
ag10
ag7
ag11
ag8
ag7
ag16
ag10
ag10
ag14
ag14
ag14
ag14
ag7
ag7
ag7
ag10
ag7
ag18
ag8
ag7
ag7
ag7
ag8
ag18
ag9
ag9
ag9
ag9
ag7
ag7
ag11
ag7
ag5
ag5
ag5
ag7
ag18
ag7
ag5
ag7
ag5
ag9
ag9
ag5
ag5
ag5
ag5
ag5
ag5
ag5
ag5
ag5
ag5
ag5
ag5
ag5
ag5
ag5
ag5
ag5
ag5
ag5
ag5
ag5
ag5
ag5
ag5
ag5
ag5
ag5
ag5
ag5
ag5
ag5
ag5
ag5
ag5
ag5
ag5
aa(lp36
g5
ag5
ag5
ag5
ag5
ag7
ag7
ag14
ag14
ag7
ag7
ag10
ag11
ag16
ag5
ag5
ag8
ag9
ag9
ag5
ag9
ag9
ag8
ag8
ag8
ag8
ag11
ag10
ag7
ag7
ag7
ag7
ag14
ag14
ag14
ag14
ag18
ag18
ag8
ag8
ag5
ag8
ag9
ag9
ag7
ag9
ag9
ag9
ag7
ag9
ag9
ag11
ag5
ag5
ag5
ag5
ag10
ag5
ag7
ag7
ag7
ag9
ag9
ag10
ag10
ag5
ag5
ag5
ag5
ag5
ag5
ag5
ag5
ag5
ag5
ag5
ag5
ag5
ag5
ag5
ag5
ag5
ag5
ag5
ag5
ag5
ag5
ag5
ag5
ag5
ag5
ag5
ag5
ag5
ag5
ag5
ag5
ag5
ag5
ag5
aa(lp37
g5
ag5
ag5
ag5
ag5
ag7
ag7
ag7
ag7
ag14
ag14
ag11
ag8
ag11
ag5
ag5
ag7
ag8
ag9
ag14
ag14
ag14
ag8
ag8
ag8
ag8
ag11
ag11
ag7
ag11
ag7
ag7
ag11
ag11
ag10
ag7
ag18
ag18
ag7
ag8
ag8
ag8
ag18
ag9
ag9
ag9
ag9
ag10
ag9
ag9
ag9
ag9
ag7
ag5
ag5
ag5
ag18
ag14
ag18
ag18
ag9
ag10
ag9
ag11
ag11
ag5
ag5
ag5
ag5
ag5
ag5
ag5
ag5
ag5
ag5
ag5
ag5
ag5
ag5
ag5
ag5
ag5
ag5
ag5
ag5
ag5
ag5
ag5
ag5
ag5
ag5
ag5
ag5
ag5
ag5
ag5
ag5
ag5
ag5
ag5
aa(lp38
g5
ag5
ag5
ag5
ag5
ag7
ag7
ag7
ag7
ag14
ag7
ag7
ag11
ag11
ag7
ag7
ag7
ag9
ag14
ag14
ag14
ag14
ag5
ag5
ag11
ag11
ag7
ag11
ag11
ag7
ag7
ag7
ag11
ag11
ag7
ag18
ag7
ag18
ag8
ag8
ag7
ag18
ag7
ag10
ag9
ag9
ag9
ag9
ag7
ag7
ag8
ag8
ag18
ag5
ag7
ag8
ag8
ag14
ag18
ag18
ag9
ag5
ag8
ag7
ag7
ag5
ag5
ag5
ag5
ag5
ag5
ag5
ag5
ag5
ag5
ag5
ag5
ag5
ag5
ag5
ag5
ag5
ag5
ag5
ag5
ag5
ag5
ag5
ag5
ag5
ag5
ag5
ag5
ag5
ag5
ag5
ag5
ag5
ag5
ag5
aa(lp39
g5
ag5
ag5
ag5
ag5
ag5
ag5
ag5
ag5
ag7
ag7
ag7
ag5
ag5
ag7
ag7
ag7
ag9
ag14
ag14
ag9
ag7
ag7
ag7
ag11
ag11
ag11
ag11
ag11
ag11
ag18
ag10
ag7
ag14
ag14
ag14
ag18
ag7
ag8
ag7
ag18
ag7
ag7
ag9
ag9
ag9
ag9
ag8
ag8
ag8
ag7
ag11
ag11
ag11
ag11
ag14
ag14
ag14
ag10
ag10
ag18
ag5
ag5
ag5
ag5
ag5
ag5
ag5
ag5
ag5
ag5
ag5
ag5
ag5
ag5
ag5
ag5
ag5
ag5
ag5
ag5
ag5
ag5
ag5
ag5
ag5
ag5
ag5
ag5
ag5
ag5
ag5
ag5
ag5
ag5
ag5
ag5
ag5
ag5
ag5
aa(lp40
g5
ag5
ag5
ag5
ag5
ag5
ag5
ag5
ag5
ag5
ag7
ag5
ag5
ag5
ag16
ag7
ag9
ag14
ag8
ag8
ag14
ag7
ag9
ag8
ag7
ag11
ag11
ag9
ag5
ag11
ag18
ag7
ag7
ag16
ag14
ag14
ag7
ag7
ag7
ag7
ag7
ag7
ag7
ag9
ag7
ag10
ag9
ag8
ag8
ag8
ag10
ag8
ag11
ag11
ag14
ag14
ag14
ag14
ag7
ag18
ag18
ag5
ag5
ag5
ag5
ag5
ag5
ag5
ag5
ag5
ag5
ag5
ag5
ag5
ag5
ag5
ag5
ag5
ag5
ag5
ag5
ag5
ag5
ag5
ag5
ag5
ag5
ag5
ag5
ag5
ag5
ag5
ag5
ag5
ag5
ag5
ag5
ag5
ag5
ag5
aa(lp41
g5
ag5
ag5
ag7
ag10
ag7
ag10
ag5
ag7
ag7
ag5
ag14
ag14
ag10
ag11
ag5
ag9
ag14
ag9
ag9
ag14
ag9
ag9
ag9
ag8
ag9
ag9
ag7
ag11
ag11
ag11
ag7
ag7
ag7
ag14
ag8
ag14
ag7
ag9
ag9
ag7
ag7
ag8
ag7
ag7
ag7
ag7
ag8
ag14
ag14
ag8
ag11
ag11
ag14
ag14
ag11
ag7
ag14
ag14
ag14
ag5
ag5
ag5
ag5
ag5
ag5
ag5
ag5
ag5
ag5
ag5
ag5
ag5
ag5
ag5
ag5
ag5
ag5
ag5
ag5
ag5
ag5
ag5
ag5
ag5
ag5
ag5
ag5
ag5
ag5
ag5
ag5
ag5
ag5
ag5
ag5
ag5
ag5
ag5
ag5
aa(lp42
g5
ag5
ag7
ag10
ag5
ag5
ag10
ag10
ag5
ag7
ag7
ag10
ag10
ag10
ag11
ag11
ag14
ag9
ag9
ag14
ag9
ag9
ag8
ag8
ag9
ag9
ag7
ag14
ag7
ag7
ag7
ag7
ag7
ag7
ag8
ag14
ag8
ag8
ag9
ag9
ag9
ag7
ag8
ag7
ag7
ag11
ag10
ag8
ag8
ag7
ag8
ag7
ag7
ag7
ag14
ag14
ag14
ag7
ag7
ag5
ag18
ag5
ag5
ag5
ag5
ag5
ag5
ag5
ag5
ag5
ag5
ag5
ag5
ag5
ag5
ag5
ag5
ag5
ag5
ag5
ag5
ag5
ag5
ag5
ag5
ag5
ag5
ag5
ag5
ag5
ag5
ag5
ag5
ag5
ag5
ag5
ag5
ag5
ag5
ag5
aa(lp43
g5
ag5
ag10
ag10
ag5
ag5
ag5
ag8
ag10
ag8
ag18
ag10
ag18
ag7
ag11
ag10
ag9
ag9
ag14
ag9
ag9
ag8
ag9
ag7
ag7
ag14
ag14
ag10
ag10
ag7
ag14
ag7
ag7
ag7
ag7
ag14
ag11
ag9
ag7
ag7
ag7
ag8
ag8
ag8
ag11
ag11
ag10
ag8
ag8
ag8
ag16
ag7
ag7
ag18
ag18
ag14
ag14
ag18
ag7
ag14
ag14
ag14
ag14
ag14
ag5
ag5
ag5
ag5
ag5
ag5
ag5
ag18
ag7
ag5
ag5
ag5
ag5
ag5
ag5
ag5
ag5
ag5
ag5
ag5
ag5
ag5
ag5
ag5
ag5
ag5
ag5
ag5
ag5
ag5
ag5
ag5
ag5
ag5
ag5
ag5
aa(lp44
g5
ag7
ag5
ag5
ag5
ag5
ag7
ag8
ag8
ag8
ag7
ag5
ag7
ag5
ag10
ag10
ag7
ag14
ag9
ag9
ag7
ag9
ag9
ag8
ag7
ag7
ag14
ag10
ag10
ag7
ag7
ag7
ag7
ag7
ag7
ag7
ag9
ag7
ag7
ag7
ag8
ag10
ag8
ag7
ag7
ag7
ag8
ag8
ag7
ag7
ag7
ag7
ag7
ag11
ag10
ag14
ag14
ag14
ag14
ag10
ag8
ag7
ag14
ag5
ag5
ag5
ag5
ag5
ag5
ag11
ag5
ag18
ag5
ag7
ag5
ag5
ag5
ag5
ag5
ag5
ag5
ag5
ag5
ag5
ag5
ag5
ag5
ag5
ag5
ag5
ag5
ag5
ag5
ag5
ag5
ag5
ag5
ag5
ag5
ag5
aa(lp45
g5
ag8
ag8
ag8
ag8
ag8
ag8
ag11
ag8
ag5
ag7
ag5
ag5
ag8
ag7
ag10
ag5
ag7
ag14
ag5
ag5
ag14
ag14
ag14
ag8
ag10
ag16
ag14
ag18
ag7
ag7
ag7
ag7
ag9
ag11
ag16
ag7
ag9
ag10
ag10
ag14
ag14
ag14
ag7
ag16
ag7
ag7
ag7
ag7
ag7
ag11
ag11
ag11
ag11
ag10
ag14
ag14
ag8
ag14
ag14
ag8
ag7
ag7
ag14
ag7
ag5
ag5
ag5
ag11
ag5
ag18
ag5
ag9
ag5
ag5
ag5
ag5
ag5
ag5
ag5
ag5
ag5
ag5
ag5
ag5
ag5
ag5
ag5
ag5
ag5
ag5
ag5
ag5
ag5
ag5
ag5
ag5
ag5
ag5
ag5
aa(lp46
g5
ag8
ag8
ag7
ag7
ag11
ag8
ag7
ag7
ag7
ag7
ag18
ag5
ag8
ag8
ag7
ag7
ag7
ag14
ag8
ag14
ag14
ag14
ag14
ag8
ag8
ag14
ag7
ag18
ag7
ag11
ag7
ag11
ag8
ag9
ag11
ag11
ag9
ag7
ag8
ag8
ag10
ag14
ag10
ag7
ag7
ag7
ag7
ag10
ag10
ag10
ag11
ag7
ag11
ag10
ag14
ag14
ag8
ag8
ag14
ag9
ag7
ag16
ag5
ag14
ag7
ag5
ag5
ag10
ag10
ag7
ag9
ag5
ag9
ag5
ag5
ag5
ag5
ag5
ag5
ag5
ag5
ag5
ag5
ag5
ag5
ag5
ag5
ag5
ag5
ag5
ag5
ag5
ag5
ag5
ag5
ag5
ag5
ag5
ag5
aa(lp47
g5
ag7
ag18
ag18
ag18
ag7
ag8
ag7
ag7
ag7
ag18
ag18
ag7
ag8
ag7
ag7
ag7
ag7
ag14
ag7
ag14
ag11
ag7
ag14
ag7
ag14
ag11
ag11
ag11
ag14
ag10
ag11
ag11
ag8
ag8
ag8
ag9
ag11
ag11
ag11
ag7
ag7
ag10
ag7
ag9
ag7
ag8
ag8
ag8
ag10
ag10
ag11
ag7
ag7
ag11
ag8
ag14
ag8
ag9
ag9
ag9
ag9
ag10
ag10
ag11
ag18
ag5
ag7
ag11
ag5
ag5
ag7
ag5
ag9
ag9
ag5
ag5
ag5
ag5
ag5
ag5
ag5
ag5
ag5
ag5
ag5
ag5
ag5
ag5
ag5
ag5
ag5
ag5
ag5
ag5
ag5
ag5
ag5
ag5
ag5
aa(lp48
g5
ag11
ag11
ag18
ag18
ag8
ag7
ag8
ag7
ag7
ag7
ag18
ag18
ag7
ag7
ag7
ag7
ag9
ag9
ag14
ag14
ag8
ag16
ag7
ag7
ag14
ag14
ag14
ag14
ag14
ag14
ag14
ag11
ag8
ag7
ag18
ag9
ag8
ag11
ag16
ag7
ag7
ag7
ag9
ag7
ag7
ag7
ag8
ag8
ag10
ag10
ag11
ag11
ag7
ag7
ag7
ag5
ag8
ag5
ag5
ag7
ag10
ag7
ag7
ag5
ag10
ag11
ag11
ag5
ag5
ag5
ag5
ag7
ag9
ag9
ag5
ag5
ag5
ag5
ag5
ag5
ag5
ag5
ag5
ag5
ag5
ag5
ag5
ag5
ag5
ag5
ag5
ag5
ag5
ag5
ag5
ag5
ag5
ag5
ag5
aa(lp49
g5
ag11
ag11
ag5
ag7
ag7
ag7
ag8
ag8
ag7
ag7
ag18
ag7
ag7
ag7
ag7
ag7
ag9
ag9
ag10
ag14
ag8
ag8
ag7
ag7
ag14
ag7
ag7
ag7
ag11
ag8
ag14
ag11
ag18
ag18
ag9
ag8
ag8
ag8
ag7
ag7
ag7
ag9
ag9
ag7
ag7
ag7
ag8
ag18
ag10
ag14
ag14
ag8
ag7
ag5
ag5
ag5
ag5
ag11
ag7
ag7
ag7
ag7
ag7
ag5
ag10
ag11
ag5
ag7
ag7
ag7
ag7
ag7
ag9
ag9
ag7
ag5
ag5
ag5
ag5
ag5
ag5
ag5
ag5
ag5
ag5
ag5
ag5
ag5
ag5
ag5
ag5
ag5
ag5
ag5
ag5
ag5
ag5
ag5
ag5
aa(lp50
g5
ag11
ag10
ag10
ag7
ag14
ag8
ag8
ag7
ag10
ag10
ag7
ag7
ag7
ag7
ag5
ag5
ag7
ag10
ag8
ag8
ag7
ag7
ag7
ag14
ag14
ag11
ag11
ag11
ag8
ag8
ag8
ag14
ag14
ag7
ag9
ag14
ag14
ag8
ag8
ag7
ag9
ag9
ag9
ag9
ag7
ag11
ag7
ag7
ag14
ag8
ag8
ag7
ag5
ag5
ag5
ag5
ag5
ag11
ag5
ag5
ag7
ag5
ag5
ag7
ag10
ag7
ag7
ag7
ag7
ag10
ag7
ag5
ag9
ag7
ag7
ag7
ag5
ag5
ag5
ag5
ag5
ag5
ag5
ag5
ag5
ag5
ag5
ag5
ag5
ag5
ag5
ag5
ag5
ag5
ag5
ag5
ag5
ag5
ag5
aa(lp51
g5
ag11
ag11
ag11
ag14
ag18
ag8
ag8
ag8
ag18
ag10
ag10
ag10
ag5
ag7
ag5
ag5
ag7
ag7
ag10
ag8
ag7
ag7
ag14
ag8
ag14
ag7
ag11
ag11
ag11
ag8
ag7
ag14
ag14
ag14
ag14
ag14
ag14
ag7
ag7
ag18
ag9
ag9
ag9
ag10
ag8
ag7
ag11
ag14
ag10
ag8
ag8
ag5
ag5
ag5
ag5
ag5
ag11
ag5
ag5
ag5
ag5
ag5
ag8
ag8
ag11
ag5
ag9
ag9
ag7
ag9
ag9
ag10
ag7
ag7
ag7
ag7
ag5
ag5
ag5
ag5
ag5
ag5
ag5
ag5
ag5
ag5
ag5
ag5
ag5
ag5
ag5
ag5
ag5
ag5
ag5
ag5
ag5
ag5
ag5
aa(lp52
g5
ag11
ag11
ag14
ag7
ag18
ag7
ag8
ag7
ag11
ag7
ag10
ag7
ag10
ag10
ag10
ag7
ag7
ag7
ag7
ag14
ag7
ag14
ag10
ag7
ag14
ag11
ag5
ag7
ag8
ag7
ag14
ag16
ag7
ag14
ag14
ag14
ag14
ag8
ag8
ag18
ag9
ag18
ag10
ag9
ag9
ag8
ag11
ag7
ag7
ag18
ag18
ag7
ag7
ag5
ag5
ag5
ag8
ag7
ag5
ag8
ag8
ag8
ag14
ag14
ag14
ag14
ag11
ag7
ag9
ag8
ag8
ag8
ag18
ag10
ag8
ag11
ag5
ag5
ag5
ag5
ag5
ag5
ag5
ag5
ag5
ag5
ag5
ag5
ag5
ag5
ag5
ag5
ag5
ag5
ag5
ag5
ag5
ag5
ag5
aa(lp53
g5
ag7
ag18
ag7
ag18
ag5
ag5
ag7
ag7
ag7
ag11
ag7
ag10
ag18
ag10
ag10
ag10
ag7
ag7
ag7
ag7
ag14
ag7
ag16
ag7
ag14
ag8
ag7
ag7
ag5
ag8
ag14
ag7
ag14
ag7
ag14
ag14
ag8
ag8
ag8
ag9
ag8
ag8
ag8
ag9
ag9
ag7
ag7
ag7
ag7
ag5
ag8
ag7
ag5
ag5
ag5
ag7
ag8
ag7
ag7
ag8
ag8
ag5
ag18
ag7
ag11
ag11
ag11
ag7
ag10
ag8
ag8
ag7
ag8
ag8
ag11
ag5
ag5
ag5
ag5
ag5
ag5
ag5
ag5
ag5
ag5
ag5
ag5
ag5
ag5
ag5
ag5
ag5
ag5
ag5
ag5
ag5
ag5
ag5
ag5
aa(lp54
g5
ag7
ag7
ag5
ag10
ag8
ag8
ag7
ag7
ag11
ag7
ag11
ag7
ag8
ag7
ag10
ag8
ag7
ag7
ag7
ag7
ag7
ag7
ag7
ag14
ag8
ag7
ag7
ag5
ag10
ag14
ag14
ag14
ag14
ag14
ag14
ag14
ag8
ag8
ag8
ag9
ag8
ag8
ag9
ag9
ag7
ag18
ag7
ag8
ag7
ag8
ag5
ag8
ag5
ag7
ag16
ag14
ag14
ag7
ag8
ag8
ag7
ag7
ag11
ag14
ag11
ag11
ag7
ag11
ag10
ag10
ag10
ag5
ag10
ag5
ag5
ag5
ag5
ag5
ag5
ag5
ag5
ag5
ag5
ag5
ag5
ag5
ag5
ag5
ag5
ag5
ag5
ag5
ag5
ag5
ag5
ag5
ag5
ag5
ag5
aa(lp55
g5
ag7
ag7
ag5
ag7
ag7
ag10
ag10
ag5
ag16
ag7
ag11
ag8
ag5
ag10
ag8
ag7
ag7
ag7
ag16
ag7
ag7
ag5
ag5
ag5
ag14
ag7
ag5
ag5
ag14
ag10
ag16
ag7
ag14
ag11
ag11
ag10
ag10
ag7
ag8
ag8
ag8
ag9
ag9
ag10
ag5
ag18
ag9
ag5
ag8
ag8
ag7
ag8
ag9
ag7
ag7
ag5
ag7
ag8
ag7
ag7
ag7
ag7
ag7
ag14
ag14
ag14
ag11
ag11
ag10
ag10
ag7
ag18
ag5
ag5
ag5
ag5
ag5
ag5
ag5
ag5
ag5
ag5
ag5
ag5
ag5
ag5
ag5
ag5
ag5
ag5
ag5
ag5
ag5
ag5
ag5
ag5
ag5
ag5
ag5
aa(lp56
g5
ag5
ag5
ag5
ag5
ag5
ag7
ag7
ag7
ag5
ag11
ag8
ag8
ag5
ag8
ag5
ag7
ag7
ag7
ag7
ag7
ag5
ag5
ag5
ag7
ag14
ag10
ag7
ag14
ag14
ag10
ag7
ag11
ag14
ag11
ag11
ag7
ag10
ag9
ag9
ag8
ag9
ag9
ag9
ag7
ag7
ag9
ag5
ag9
ag9
ag8
ag8
ag8
ag9
ag5
ag5
ag7
ag7
ag16
ag5
ag5
ag7
ag7
ag7
ag5
ag5
ag5
ag14
ag18
ag7
ag7
ag14
ag10
ag10
ag5
ag5
ag5
ag5
ag5
ag5
ag5
ag5
ag5
ag5
ag5
ag5
ag5
ag5
ag5
ag5
ag5
ag5
ag5
ag5
ag5
ag5
ag5
ag5
ag5
ag5
aa(lp57
g5
ag5
ag5
ag7
ag7
ag14
ag14
ag14
ag5
ag7
ag10
ag8
ag8
ag8
ag8
ag7
ag7
ag7
ag7
ag7
ag7
ag7
ag5
ag5
ag7
ag14
ag10
ag14
ag7
ag14
ag7
ag7
ag7
ag11
ag10
ag8
ag7
ag8
ag9
ag10
ag8
ag10
ag9
ag9
ag9
ag9
ag5
ag5
ag9
ag5
ag9
ag8
ag5
ag9
ag8
ag8
ag7
ag5
ag7
ag5
ag7
ag7
ag5
ag5
ag5
ag5
ag5
ag5
ag5
ag7
ag16
ag14
ag5
ag10
ag5
ag5
ag5
ag5
ag5
ag5
ag5
ag5
ag5
ag5
ag5
ag5
ag5
ag5
ag5
ag5
ag5
ag5
ag5
ag5
ag5
ag5
ag5
ag5
ag5
ag5
aa(lp58
g5
ag5
ag5
ag7
ag7
ag14
ag14
ag8
ag8
ag10
ag10
ag5
ag18
ag8
ag18
ag5
ag5
ag7
ag7
ag5
ag5
ag5
ag7
ag7
ag5
ag7
ag14
ag11
ag7
ag14
ag7
ag10
ag11
ag10
ag11
ag8
ag8
ag8
ag18
ag7
ag14
ag14
ag9
ag9
ag7
ag5
ag5
ag7
ag10
ag10
ag5
ag7
ag8
ag16
ag8
ag8
ag7
ag5
ag7
ag14
ag14
ag7
ag10
ag5
ag5
ag5
ag5
ag5
ag5
ag7
ag5
ag14
ag7
ag10
ag5
ag5
ag5
ag5
ag5
ag5
ag5
ag5
ag5
ag5
ag5
ag5
ag5
ag5
ag5
ag5
ag5
ag5
ag5
ag5
ag5
ag5
ag5
ag5
ag5
ag5
aa(lp59
g5
ag5
ag5
ag14
ag14
ag7
ag5
ag14
ag5
ag7
ag11
ag11
ag5
ag14
ag14
ag14
ag5
ag5
ag5
ag5
ag5
ag5
ag5
ag7
ag7
ag5
ag10
ag10
ag11
ag14
ag7
ag11
ag11
ag10
ag7
ag7
ag8
ag8
ag7
ag11
ag11
ag14
ag11
ag11
ag7
ag5
ag7
ag7
ag7
ag10
ag8
ag8
ag7
ag8
ag8
ag8
ag8
ag16
ag14
ag7
ag7
ag10
ag10
ag5
ag5
ag5
ag5
ag5
ag7
ag5
ag5
ag5
ag5
ag5
ag5
ag5
ag5
ag5
ag5
ag5
ag5
ag5
ag5
ag5
ag5
ag5
ag5
ag5
ag5
ag5
ag5
ag5
ag5
ag5
ag5
ag5
ag5
ag5
ag5
ag5
aa(lp60
g5
ag5
ag5
ag5
ag7
ag5
ag5
ag5
ag5
ag5
ag5
ag14
ag11
ag14
ag14
ag18
ag5
ag5
ag5
ag5
ag5
ag5
ag5
ag7
ag5
ag7
ag11
ag11
ag11
ag9
ag18
ag18
ag11
ag11
ag14
ag14
ag18
ag18
ag18
ag7
ag7
ag11
ag7
ag10
ag5
ag10
ag10
ag11
ag11
ag8
ag7
ag7
ag8
ag7
ag7
ag8
ag7
ag14
ag7
ag7
ag7
ag7
ag7
ag5
ag5
ag5
ag5
ag5
ag7
ag5
ag5
ag5
ag5
ag5
ag5
ag5
ag5
ag5
ag5
ag5
ag5
ag7
ag5
ag5
ag9
ag9
ag9
ag5
ag5
ag5
ag5
ag5
ag5
ag5
ag5
ag5
ag5
ag5
ag5
ag5
aa(lp61
g5
ag5
ag5
ag5
ag5
ag7
ag18
ag18
ag7
ag5
ag7
ag7
ag14
ag14
ag18
ag7
ag8
ag5
ag5
ag5
ag5
ag5
ag5
ag7
ag5
ag5
ag5
ag7
ag9
ag8
ag9
ag11
ag14
ag14
ag7
ag7
ag14
ag16
ag7
ag10
ag7
ag7
ag7
ag10
ag10
ag10
ag7
ag5
ag11
ag5
ag7
ag7
ag11
ag5
ag8
ag7
ag11
ag14
ag7
ag7
ag7
ag18
ag7
ag5
ag5
ag5
ag5
ag7
ag5
ag5
ag7
ag5
ag18
ag5
ag5
ag5
ag5
ag5
ag5
ag7
ag5
ag7
ag7
ag18
ag5
ag9
ag9
ag9
ag5
ag5
ag5
ag5
ag5
ag5
ag5
ag5
ag5
ag5
ag5
ag5
aa(lp62
g5
ag5
ag5
ag5
ag5
ag7
ag7
ag7
ag7
ag5
ag7
ag7
ag14
ag14
ag7
ag8
ag8
ag5
ag5
ag5
ag5
ag5
ag5
ag5
ag7
ag18
ag18
ag10
ag5
ag8
ag14
ag14
ag14
ag14
ag14
ag14
ag7
ag7
ag10
ag8
ag10
ag14
ag7
ag5
ag5
ag10
ag5
ag5
ag5
ag5
ag5
ag7
ag14
ag14
ag7
ag14
ag10
ag10
ag11
ag11
ag7
ag7
ag5
ag5
ag7
ag5
ag7
ag7
ag5
ag5
ag5
ag18
ag18
ag5
ag5
ag5
ag5
ag5
ag5
ag7
ag8
ag5
ag10
ag7
ag9
ag9
ag9
ag9
ag5
ag5
ag5
ag5
ag5
ag5
ag5
ag5
ag5
ag5
ag5
ag5
aa(lp63
g5
ag5
ag5
ag5
ag5
ag7
ag7
ag7
ag7
ag9
ag7
ag7
ag7
ag7
ag7
ag8
ag8
ag5
ag9
ag10
ag5
ag5
ag5
ag5
ag5
ag5
ag14
ag14
ag5
ag5
ag14
ag14
ag8
ag8
ag14
ag7
ag14
ag14
ag14
ag14
ag14
ag7
ag5
ag5
ag7
ag5
ag5
ag5
ag5
ag5
ag5
ag5
ag10
ag8
ag14
ag14
ag14
ag14
ag14
ag14
ag14
ag14
ag5
ag7
ag7
ag7
ag7
ag7
ag5
ag5
ag5
ag5
ag18
ag10
ag5
ag5
ag5
ag5
ag5
ag8
ag7
ag10
ag7
ag8
ag9
ag8
ag8
ag8
ag9
ag5
ag5
ag7
ag5
ag14
ag14
ag5
ag5
ag5
ag5
ag5
aa(lp64
g5
ag5
ag5
ag5
ag5
ag9
ag9
ag8
ag9
ag7
ag9
ag9
ag9
ag9
ag18
ag8
ag8
ag9
ag9
ag9
ag8
ag5
ag7
ag5
ag5
ag5
ag5
ag8
ag14
ag7
ag9
ag7
ag7
ag16
ag18
ag8
ag7
ag9
ag10
ag7
ag8
ag8
ag5
ag7
ag5
ag5
ag5
ag5
ag5
ag5
ag5
ag11
ag10
ag7
ag14
ag7
ag11
ag14
ag14
ag8
ag11
ag7
ag7
ag5
ag5
ag7
ag7
ag5
ag5
ag7
ag7
ag7
ag5
ag10
ag7
ag5
ag5
ag5
ag7
ag10
ag10
ag7
ag8
ag10
ag8
ag9
ag9
ag9
ag8
ag5
ag7
ag5
ag7
ag5
ag14
ag7
ag7
ag5
ag5
ag5
aa(lp65
g5
ag5
ag5
ag5
ag16
ag7
ag9
ag8
ag9
ag7
ag7
ag5
ag9
ag7
ag7
ag11
ag10
ag9
ag9
ag9
ag9
ag7
ag5
ag7
ag11
ag11
ag8
ag9
ag8
ag14
ag9
ag7
ag7
ag7
ag8
ag7
ag10
ag9
ag9
ag10
ag10
ag7
ag7
ag7
ag7
ag7
ag7
ag5
ag5
ag5
ag5
ag14
ag11
ag14
ag5
ag5
ag5
ag18
ag14
ag18
ag11
ag7
ag7
ag5
ag5
ag5
ag8
ag7
ag7
ag7
ag7
ag7
ag10
ag5
ag5
ag16
ag7
ag7
ag7
ag10
ag10
ag7
ag8
ag7
ag8
ag8
ag8
ag7
ag9
ag8
ag7
ag7
ag7
ag7
ag14
ag7
ag7
ag5
ag5
ag5
aa(lp66
g5
ag5
ag5
ag5
ag5
ag7
ag10
ag5
ag7
ag7
ag7
ag9
ag16
ag9
ag7
ag14
ag11
ag18
ag9
ag7
ag7
ag5
ag7
ag5
ag11
ag10
ag8
ag8
ag8
ag8
ag9
ag18
ag7
ag11
ag14
ag7
ag14
ag10
ag7
ag5
ag10
ag10
ag7
ag7
ag18
ag18
ag5
ag5
ag5
ag5
ag5
ag5
ag14
ag11
ag5
ag5
ag5
ag5
ag14
ag14
ag14
ag7
ag16
ag7
ag7
ag7
ag8
ag11
ag14
ag7
ag7
ag16
ag5
ag5
ag5
ag5
ag5
ag7
ag10
ag5
ag7
ag10
ag18
ag18
ag8
ag8
ag8
ag8
ag8
ag7
ag7
ag7
ag7
ag7
ag7
ag7
ag5
ag7
ag5
ag5
aa(lp67
g5
ag5
ag5
ag5
ag5
ag7
ag7
ag7
ag5
ag18
ag5
ag5
ag7
ag14
ag14
ag14
ag11
ag10
ag7
ag9
ag5
ag7
ag7
ag7
ag10
ag11
ag9
ag8
ag8
ag14
ag9
ag18
ag16
ag11
ag11
ag14
ag14
ag7
ag7
ag8
ag5
ag7
ag10
ag10
ag10
ag14
ag5
ag5
ag5
ag5
ag5
ag5
ag5
ag5
ag5
ag5
ag5
ag5
ag5
ag5
ag8
ag8
ag7
ag7
ag7
ag7
ag14
ag8
ag14
ag18
ag18
ag7
ag5
ag5
ag5
ag5
ag5
ag5
ag5
ag5
ag5
ag5
ag14
ag18
ag9
ag14
ag9
ag8
ag7
ag7
ag7
ag8
ag8
ag7
ag5
ag5
ag7
ag5
ag5
ag5
aa(lp68
g5
ag5
ag5
ag5
ag5
ag5
ag5
ag5
ag5
ag5
ag11
ag7
ag7
ag14
ag14
ag14
ag14
ag7
ag10
ag7
ag9
ag5
ag16
ag7
ag7
ag7
ag5
ag10
ag8
ag14
ag5
ag18
ag18
ag18
ag8
ag8
ag14
ag7
ag7
ag7
ag7
ag8
ag8
ag5
ag14
ag14
ag14
ag5
ag5
ag5
ag5
ag5
ag5
ag5
ag5
ag5
ag5
ag5
ag5
ag5
ag5
ag8
ag5
ag8
ag8
ag8
ag8
ag14
ag18
ag7
ag18
ag7
ag5
ag5
ag5
ag5
ag5
ag5
ag5
ag5
ag5
ag14
ag14
ag14
ag14
ag14
ag14
ag9
ag7
ag5
ag8
ag8
ag8
ag9
ag9
ag16
ag9
ag7
ag5
ag5
aa(lp69
g5
ag5
ag5
ag7
ag5
ag5
ag5
ag5
ag5
ag9
ag9
ag7
ag7
ag14
ag14
ag14
ag8
ag16
ag7
ag9
ag5
ag9
ag5
ag7
ag7
ag5
ag5
ag7
ag14
ag5
ag8
ag9
ag18
ag8
ag8
ag7
ag14
ag8
ag7
ag7
ag10
ag8
ag18
ag18
ag10
ag7
ag5
ag7
ag5
ag5
ag5
ag5
ag5
ag5
ag5
ag5
ag5
ag5
ag5
ag5
ag5
ag5
ag7
ag5
ag8
ag5
ag5
ag8
ag5
ag18
ag7
ag5
ag7
ag5
ag5
ag5
ag5
ag5
ag5
ag5
ag5
ag10
ag9
ag14
ag10
ag14
ag14
ag14
ag5
ag5
ag5
ag8
ag5
ag9
ag9
ag9
ag9
ag9
ag9
ag5
aa(lp70
g5
ag5
ag5
ag5
ag7
ag5
ag5
ag5
ag5
ag9
ag9
ag10
ag7
ag5
ag14
ag14
ag7
ag7
ag7
ag7
ag9
ag9
ag5
ag5
ag7
ag5
ag5
ag14
ag5
ag8
ag9
ag5
ag5
ag5
ag8
ag8
ag14
ag7
ag18
ag11
ag7
ag8
ag18
ag7
ag18
ag7
ag7
ag5
ag5
ag5
ag5
ag5
ag5
ag5
ag5
ag5
ag5
ag5
ag5
ag5
ag5
ag5
ag5
ag7
ag5
ag5
ag5
ag10
ag10
ag7
ag7
ag7
ag5
ag5
ag5
ag5
ag5
ag7
ag9
ag7
ag9
ag9
ag14
ag14
ag5
ag7
ag7
ag7
ag5
ag5
ag5
ag5
ag5
ag5
ag5
ag9
ag7
ag9
ag5
ag5
aa(lp71
g5
ag5
ag5
ag5
ag5
ag7
ag5
ag9
ag5
ag9
ag9
ag5
ag5
ag7
ag14
ag5
ag5
ag7
ag7
ag5
ag9
ag5
ag14
ag14
ag5
ag7
ag14
ag9
ag7
ag8
ag8
ag5
ag5
ag5
ag8
ag8
ag5
ag5
ag7
ag18
ag5
ag8
ag5
ag18
ag5
ag7
ag7
ag5
ag5
ag5
ag5
ag5
ag5
ag5
ag5
ag5
ag5
ag5
ag5
ag5
ag11
ag7
ag5
ag5
ag7
ag7
ag5
ag11
ag7
ag7
ag16
ag7
ag7
ag7
ag7
ag5
ag5
ag5
ag9
ag9
ag9
ag9
ag9
ag5
ag7
ag5
ag5
ag7
ag5
ag5
ag5
ag5
ag5
ag5
ag5
ag10
ag5
ag5
ag5
ag5
aa(lp72
g5
ag5
ag5
ag5
ag5
ag5
ag9
ag9
ag9
ag7
ag5
ag5
ag5
ag5
ag5
ag5
ag5
ag5
ag5
ag5
ag5
ag5
ag5
ag5
ag5
ag14
ag9
ag9
ag7
ag8
ag5
ag8
ag5
ag5
ag5
ag10
ag7
ag7
ag18
ag7
ag7
ag5
ag7
ag7
ag7
ag5
ag5
ag5
ag5
ag5
ag5
ag5
ag5
ag5
ag5
ag5
ag11
ag5
ag5
ag11
ag11
ag7
ag8
ag8
ag9
ag9
ag11
ag11
ag8
ag7
ag7
ag7
ag7
ag7
ag7
ag5
ag5
ag5
ag9
ag9
ag5
ag9
ag7
ag7
ag5
ag5
ag5
ag5
ag5
ag5
ag5
ag5
ag5
ag5
ag5
ag5
ag5
ag5
ag5
ag5
aa(lp73
g5
ag5
ag5
ag5
ag5
ag5
ag9
ag14
ag9
ag7
ag7
ag5
ag5
ag5
ag5
ag5
ag5
ag5
ag5
ag5
ag5
ag5
ag5
ag5
ag5
ag5
ag14
ag5
ag9
ag7
ag5
ag8
ag5
ag5
ag5
ag5
ag5
ag7
ag5
ag7
ag16
ag7
ag7
ag5
ag5
ag5
ag5
ag5
ag5
ag14
ag14
ag5
ag7
ag7
ag7
ag7
ag7
ag10
ag7
ag9
ag5
ag7
ag7
ag8
ag9
ag11
ag7
ag7
ag11
ag11
ag11
ag11
ag11
ag7
ag5
ag5
ag7
ag10
ag7
ag5
ag7
ag9
ag9
ag5
ag5
ag5
ag5
ag5
ag5
ag5
ag5
ag5
ag5
ag5
ag5
ag5
ag5
ag5
ag5
ag5
aa(lp74
g5
ag5
ag5
ag5
ag5
ag9
ag9
ag14
ag14
ag5
ag5
ag5
ag5
ag5
ag5
ag5
ag5
ag5
ag5
ag5
ag5
ag5
ag5
ag5
ag5
ag5
ag14
ag18
ag5
ag5
ag5
ag9
ag5
ag5
ag5
ag7
ag7
ag14
ag5
ag5
ag7
ag7
ag5
ag5
ag5
ag5
ag5
ag5
ag14
ag14
ag14
ag9
ag7
ag7
ag7
ag5
ag10
ag5
ag11
ag5
ag9
ag9
ag9
ag8
ag8
ag11
ag8
ag8
ag7
ag11
ag11
ag11
ag11
ag5
ag5
ag18
ag18
ag10
ag11
ag7
ag7
ag7
ag5
ag5
ag5
ag5
ag5
ag5
ag5
ag5
ag5
ag5
ag5
ag5
ag5
ag5
ag5
ag5
ag5
ag5
aa(lp75
g5
ag5
ag5
ag5
ag5
ag5
ag5
ag5
ag5
ag5
ag5
ag5
ag5
ag5
ag5
ag5
ag5
ag5
ag5
ag5
ag5
ag5
ag5
ag5
ag5
ag18
ag5
ag5
ag7
ag9
ag9
ag5
ag5
ag5
ag5
ag7
ag14
ag7
ag5
ag7
ag11
ag7
ag5
ag5
ag5
ag5
ag5
ag5
ag14
ag14
ag7
ag9
ag9
ag10
ag10
ag7
ag5
ag11
ag11
ag9
ag9
ag5
ag7
ag8
ag8
ag8
ag8
ag7
ag7
ag7
ag7
ag5
ag5
ag5
ag7
ag7
ag7
ag5
ag5
ag7
ag7
ag5
ag5
ag5
ag5
ag5
ag5
ag5
ag5
ag5
ag5
ag5
ag5
ag5
ag5
ag5
ag5
ag5
ag5
ag5
aa(lp76
g5
ag5
ag5
ag5
ag5
ag5
ag5
ag5
ag5
ag5
ag5
ag5
ag5
ag5
ag5
ag5
ag5
ag5
ag5
ag5
ag5
ag5
ag5
ag10
ag10
ag10
ag5
ag5
ag9
ag11
ag11
ag10
ag7
ag5
ag5
ag8
ag14
ag5
ag7
ag16
ag11
ag11
ag5
ag5
ag5
ag5
ag5
ag5
ag5
ag5
ag7
ag5
ag9
ag10
ag5
ag5
ag5
ag5
ag5
ag11
ag5
ag5
ag7
ag7
ag16
ag8
ag8
ag11
ag11
ag7
ag7
ag7
ag5
ag10
ag5
ag5
ag10
ag7
ag5
ag7
ag5
ag5
ag5
ag5
ag5
ag5
ag5
ag5
ag5
ag5
ag5
ag5
ag5
ag5
ag5
ag5
ag5
ag5
ag5
ag5
aa(lp77
g5
ag5
ag5
ag5
ag5
ag5
ag5
ag5
ag5
ag5
ag5
ag5
ag5
ag5
ag5
ag5
ag5
ag5
ag5
ag5
ag5
ag5
ag5
ag7
ag10
ag7
ag5
ag5
ag5
ag11
ag10
ag7
ag5
ag14
ag14
ag8
ag8
ag14
ag5
ag7
ag9
ag7
ag11
ag5
ag5
ag5
ag5
ag5
ag5
ag7
ag7
ag5
ag5
ag7
ag5
ag5
ag5
ag5
ag7
ag5
ag7
ag7
ag7
ag7
ag10
ag10
ag7
ag11
ag7
ag11
ag7
ag7
ag10
ag14
ag14
ag5
ag10
ag5
ag5
ag5
ag5
ag5
ag5
ag5
ag5
ag5
ag5
ag5
ag5
ag5
ag5
ag5
ag5
ag5
ag5
ag5
ag5
ag5
ag5
ag5
aa(lp78
g5
ag5
ag5
ag5
ag5
ag5
ag5
ag5
ag5
ag5
ag5
ag5
ag5
ag5
ag5
ag5
ag5
ag5
ag5
ag5
ag5
ag5
ag5
ag5
ag5
ag10
ag5
ag10
ag10
ag10
ag7
ag14
ag14
ag14
ag14
ag7
ag8
ag5
ag14
ag11
ag10
ag9
ag11
ag5
ag5
ag5
ag5
ag5
ag5
ag5
ag5
ag5
ag5
ag7
ag7
ag5
ag5
ag5
ag5
ag7
ag16
ag7
ag10
ag10
ag18
ag7
ag7
ag7
ag7
ag5
ag7
ag10
ag7
ag7
ag14
ag18
ag10
ag5
ag5
ag5
ag5
ag5
ag5
ag5
ag5
ag5
ag5
ag5
ag5
ag5
ag5
ag5
ag5
ag5
ag5
ag5
ag5
ag5
ag5
ag5
aa(lp79
g5
ag5
ag5
ag5
ag5
ag5
ag5
ag5
ag5
ag5
ag5
ag5
ag5
ag5
ag5
ag5
ag5
ag5
ag5
ag5
ag5
ag5
ag5
ag5
ag5
ag5
ag9
ag9
ag10
ag10
ag10
ag14
ag5
ag5
ag14
ag7
ag5
ag5
ag14
ag7
ag9
ag11
ag9
ag5
ag5
ag5
ag5
ag5
ag5
ag5
ag5
ag5
ag5
ag7
ag5
ag5
ag5
ag5
ag5
ag7
ag7
ag10
ag10
ag7
ag10
ag7
ag7
ag7
ag5
ag5
ag5
ag18
ag11
ag18
ag14
ag7
ag5
ag5
ag5
ag5
ag5
ag5
ag5
ag5
ag5
ag5
ag5
ag5
ag5
ag5
ag5
ag5
ag5
ag5
ag5
ag5
ag5
ag5
ag5
ag5
aa(lp80
g5
ag5
ag5
ag5
ag5
ag5
ag5
ag5
ag5
ag5
ag5
ag5
ag5
ag5
ag5
ag5
ag5
ag5
ag5
ag5
ag5
ag5
ag5
ag5
ag5
ag7
ag14
ag14
ag14
ag14
ag14
ag14
ag14
ag14
ag5
ag5
ag5
ag5
ag14
ag7
ag10
ag9
ag10
ag5
ag5
ag5
ag5
ag5
ag5
ag5
ag5
ag5
ag7
ag5
ag5
ag5
ag5
ag5
ag5
ag5
ag9
ag14
ag14
ag9
ag16
ag9
ag11
ag9
ag9
ag7
ag5
ag11
ag11
ag7
ag14
ag5
ag7
ag5
ag5
ag5
ag5
ag5
ag5
ag5
ag5
ag5
ag5
ag5
ag5
ag5
ag5
ag5
ag5
ag5
ag5
ag5
ag5
ag5
ag5
ag5
aa(lp81
g5
ag5
ag5
ag5
ag5
ag5
ag5
ag5
ag5
ag5
ag5
ag5
ag5
ag5
ag5
ag5
ag5
ag5
ag5
ag5
ag5
ag5
ag5
ag5
ag5
ag7
ag7
ag14
ag7
ag5
ag14
ag5
ag7
ag7
ag5
ag5
ag5
ag10
ag14
ag7
ag7
ag10
ag7
ag16
ag5
ag5
ag5
ag5
ag5
ag5
ag5
ag5
ag5
ag9
ag5
ag5
ag5
ag14
ag7
ag9
ag14
ag14
ag9
ag9
ag9
ag7
ag9
ag8
ag11
ag9
ag5
ag11
ag7
ag14
ag14
ag7
ag5
ag8
ag5
ag5
ag5
ag5
ag5
ag5
ag5
ag5
ag5
ag5
ag5
ag5
ag5
ag5
ag5
ag5
ag5
ag5
ag5
ag5
ag5
ag5
aa(lp82
g5
ag5
ag5
ag5
ag5
ag5
ag5
ag5
ag5
ag5
ag5
ag5
ag5
ag5
ag5
ag5
ag5
ag5
ag5
ag5
ag5
ag5
ag5
ag5
ag5
ag5
ag7
ag9
ag14
ag14
ag7
ag5
ag5
ag5
ag16
ag7
ag7
ag10
ag14
ag7
ag7
ag5
ag7
ag7
ag7
ag5
ag5
ag5
ag5
ag5
ag5
ag5
ag7
ag9
ag9
ag5
ag5
ag14
ag7
ag5
ag14
ag14
ag5
ag9
ag7
ag7
ag7
ag8
ag9
ag9
ag9
ag8
ag5
ag14
ag5
ag5
ag5
ag5
ag8
ag5
ag5
ag5
ag5
ag5
ag5
ag5
ag5
ag5
ag5
ag5
ag5
ag5
ag5
ag5
ag5
ag5
ag5
ag5
ag5
ag5
aa(lp83
g5
ag5
ag5
ag5
ag5
ag5
ag5
ag5
ag5
ag5
ag5
ag5
ag5
ag5
ag5
ag5
ag5
ag5
ag5
ag5
ag5
ag5
ag5
ag5
ag5
ag5
ag5
ag7
ag7
ag14
ag14
ag5
ag11
ag11
ag7
ag5
ag7
ag7
ag10
ag16
ag7
ag5
ag5
ag7
ag7
ag7
ag7
ag5
ag5
ag5
ag5
ag5
ag5
ag9
ag5
ag9
ag7
ag9
ag8
ag8
ag14
ag8
ag9
ag7
ag5
ag7
ag7
ag5
ag5
ag5
ag9
ag8
ag5
ag5
ag9
ag8
ag5
ag8
ag8
ag5
ag5
ag5
ag5
ag5
ag5
ag5
ag5
ag5
ag5
ag5
ag5
ag5
ag5
ag5
ag5
ag5
ag5
ag5
ag5
ag5
aa(lp84
g5
ag5
ag5
ag5
ag5
ag5
ag5
ag5
ag5
ag5
ag5
ag5
ag5
ag5
ag5
ag5
ag5
ag5
ag5
ag5
ag5
ag5
ag5
ag5
ag5
ag5
ag5
ag5
ag5
ag14
ag14
ag11
ag5
ag11
ag5
ag5
ag11
ag7
ag7
ag7
ag7
ag7
ag5
ag5
ag7
ag5
ag5
ag7
ag5
ag5
ag5
ag5
ag7
ag9
ag9
ag5
ag9
ag9
ag8
ag10
ag14
ag5
ag7
ag7
ag7
ag5
ag5
ag5
ag5
ag5
ag9
ag5
ag5
ag5
ag5
ag9
ag18
ag8
ag5
ag5
ag5
ag5
ag5
ag5
ag5
ag5
ag5
ag5
ag5
ag5
ag5
ag5
ag5
ag5
ag5
ag5
ag5
ag5
ag5
ag5
aa(lp85
g5
ag5
ag5
ag5
ag5
ag5
ag5
ag5
ag5
ag5
ag5
ag5
ag5
ag5
ag5
ag5
ag5
ag5
ag5
ag5
ag5
ag5
ag5
ag5
ag5
ag5
ag5
ag5
ag5
ag7
ag14
ag5
ag5
ag5
ag5
ag5
ag7
ag11
ag5
ag7
ag7
ag5
ag5
ag5
ag5
ag5
ag5
ag9
ag9
ag5
ag5
ag5
ag14
ag9
ag9
ag5
ag9
ag8
ag8
ag5
ag5
ag5
ag5
ag5
ag5
ag5
ag5
ag5
ag5
ag5
ag5
ag5
ag5
ag8
ag5
ag9
ag9
ag9
ag8
ag5
ag5
ag5
ag5
ag5
ag5
ag5
ag5
ag5
ag5
ag5
ag5
ag5
ag5
ag5
ag5
ag5
ag5
ag5
ag5
ag5
aa(lp86
g5
ag5
ag5
ag5
ag5
ag5
ag5
ag5
ag5
ag5
ag5
ag5
ag5
ag5
ag5
ag5
ag5
ag5
ag5
ag5
ag5
ag5
ag5
ag5
ag5
ag5
ag5
ag5
ag5
ag5
ag5
ag5
ag5
ag5
ag5
ag5
ag5
ag5
ag16
ag5
ag5
ag5
ag5
ag5
ag5
ag5
ag5
ag5
ag9
ag9
ag5
ag5
ag5
ag5
ag16
ag9
ag9
ag9
ag8
ag5
ag5
ag5
ag5
ag5
ag5
ag5
ag5
ag5
ag5
ag5
ag5
ag5
ag5
ag8
ag7
ag10
ag9
ag9
ag9
ag5
ag5
ag5
ag5
ag5
ag5
ag5
ag5
ag5
ag5
ag5
ag5
ag5
ag5
ag5
ag5
ag5
ag5
ag5
ag5
ag5
aa(lp87
g5
ag5
ag5
ag5
ag5
ag5
ag5
ag5
ag5
ag5
ag5
ag5
ag5
ag5
ag5
ag5
ag5
ag5
ag5
ag5
ag5
ag5
ag5
ag5
ag5
ag5
ag5
ag5
ag5
ag5
ag5
ag5
ag5
ag5
ag5
ag5
ag5
ag5
ag5
ag5
ag5
ag5
ag5
ag5
ag5
ag5
ag5
ag5
ag9
ag9
ag9
ag18
ag9
ag5
ag5
ag10
ag5
ag9
ag8
ag5
ag5
ag5
ag5
ag5
ag5
ag5
ag5
ag5
ag5
ag5
ag5
ag5
ag7
ag7
ag18
ag9
ag9
ag9
ag9
ag14
ag5
ag5
ag5
ag5
ag5
ag5
ag5
ag5
ag5
ag5
ag5
ag5
ag5
ag5
ag5
ag5
ag5
ag5
ag5
ag5
aa(lp88
g5
ag5
ag5
ag5
ag5
ag5
ag5
ag5
ag5
ag5
ag5
ag5
ag5
ag5
ag5
ag5
ag5
ag5
ag5
ag5
ag5
ag5
ag5
ag5
ag5
ag5
ag5
ag5
ag5
ag5
ag5
ag5
ag5
ag5
ag5
ag5
ag5
ag5
ag5
ag5
ag5
ag5
ag5
ag5
ag5
ag5
ag5
ag5
ag5
ag9
ag7
ag9
ag5
ag10
ag7
ag5
ag7
ag7
ag5
ag5
ag5
ag5
ag5
ag5
ag5
ag5
ag5
ag5
ag5
ag5
ag5
ag5
ag5
ag5
ag9
ag9
ag9
ag9
ag9
ag14
ag5
ag5
ag5
ag5
ag5
ag5
ag5
ag5
ag5
ag5
ag5
ag5
ag5
ag5
ag5
ag5
ag5
ag5
ag5
ag5
aa(lp89
g5
ag5
ag5
ag5
ag5
ag5
ag5
ag5
ag5
ag5
ag5
ag5
ag5
ag5
ag5
ag5
ag5
ag5
ag5
ag5
ag5
ag5
ag5
ag5
ag5
ag5
ag5
ag5
ag5
ag5
ag5
ag5
ag5
ag5
ag5
ag5
ag5
ag5
ag5
ag5
ag5
ag5
ag5
ag5
ag5
ag5
ag5
ag5
ag5
ag7
ag7
ag7
ag5
ag5
ag5
ag5
ag5
ag5
ag5
ag5
ag5
ag5
ag5
ag5
ag5
ag5
ag5
ag5
ag5
ag5
ag5
ag7
ag7
ag5
ag9
ag9
ag9
ag18
ag14
ag5
ag7
ag5
ag5
ag5
ag5
ag5
ag5
ag5
ag5
ag5
ag5
ag5
ag5
ag7
ag10
ag5
ag5
ag5
ag5
ag5
aa(lp90
g5
ag5
ag5
ag5
ag5
ag5
ag5
ag5
ag5
ag5
ag5
ag5
ag5
ag5
ag5
ag5
ag5
ag5
ag5
ag5
ag5
ag5
ag5
ag5
ag5
ag5
ag5
ag5
ag5
ag5
ag5
ag5
ag5
ag5
ag5
ag5
ag5
ag5
ag5
ag5
ag5
ag5
ag5
ag5
ag5
ag5
ag5
ag5
ag7
ag7
ag16
ag7
ag5
ag5
ag5
ag5
ag5
ag5
ag5
ag5
ag5
ag5
ag5
ag5
ag14
ag5
ag5
ag7
ag5
ag5
ag5
ag5
ag14
ag14
ag9
ag7
ag14
ag14
ag7
ag7
ag5
ag5
ag5
ag5
ag5
ag5
ag5
ag5
ag5
ag5
ag7
ag7
ag5
ag10
ag8
ag9
ag5
ag5
ag5
ag5
aa(lp91
g5
ag5
ag5
ag5
ag5
ag5
ag5
ag5
ag5
ag5
ag5
ag5
ag5
ag5
ag5
ag5
ag5
ag5
ag5
ag5
ag5
ag5
ag5
ag5
ag5
ag5
ag5
ag5
ag5
ag5
ag5
ag5
ag5
ag5
ag5
ag5
ag5
ag5
ag5
ag5
ag5
ag5
ag5
ag5
ag5
ag5
ag5
ag5
ag5
ag5
ag7
ag7
ag5
ag5
ag5
ag5
ag5
ag5
ag5
ag5
ag5
ag5
ag5
ag5
ag5
ag14
ag14
ag5
ag7
ag5
ag5
ag7
ag14
ag5
ag14
ag14
ag18
ag18
ag18
ag5
ag7
ag5
ag5
ag5
ag5
ag5
ag5
ag5
ag7
ag7
ag14
ag7
ag16
ag8
ag8
ag7
ag9
ag5
ag5
ag5
aa(lp92
g5
ag5
ag5
ag5
ag5
ag5
ag5
ag5
ag5
ag5
ag5
ag5
ag5
ag5
ag5
ag5
ag5
ag5
ag5
ag5
ag5
ag5
ag5
ag5
ag5
ag5
ag5
ag5
ag5
ag5
ag5
ag5
ag5
ag5
ag5
ag5
ag5
ag5
ag5
ag5
ag5
ag5
ag5
ag5
ag5
ag5
ag5
ag5
ag5
ag5
ag7
ag7
ag5
ag5
ag5
ag5
ag5
ag5
ag5
ag5
ag5
ag5
ag5
ag5
ag5
ag9
ag10
ag7
ag7
ag7
ag7
ag14
ag5
ag5
ag5
ag5
ag7
ag18
ag7
ag5
ag7
ag8
ag5
ag5
ag5
ag5
ag5
ag7
ag18
ag8
ag7
ag7
ag8
ag8
ag8
ag7
ag5
ag9
ag5
ag5
aa(lp93
g5
ag5
ag5
ag5
ag5
ag5
ag5
ag5
ag5
ag5
ag5
ag5
ag5
ag5
ag5
ag5
ag5
ag5
ag5
ag5
ag5
ag5
ag5
ag5
ag5
ag5
ag5
ag5
ag5
ag5
ag5
ag5
ag5
ag5
ag5
ag5
ag5
ag5
ag5
ag5
ag5
ag5
ag5
ag5
ag5
ag5
ag5
ag5
ag5
ag5
ag7
ag5
ag5
ag5
ag5
ag5
ag5
ag5
ag5
ag5
ag5
ag5
ag5
ag5
ag5
ag10
ag9
ag7
ag7
ag9
ag5
ag5
ag5
ag5
ag5
ag5
ag5
ag7
ag5
ag5
ag5
ag8
ag8
ag7
ag5
ag5
ag5
ag18
ag18
ag7
ag8
ag8
ag7
ag5
ag18
ag5
ag9
ag5
ag5
ag5
aa(lp94
g5
ag5
ag5
ag5
ag5
ag5
ag5
ag5
ag5
ag5
ag5
ag5
ag5
ag5
ag5
ag5
ag5
ag5
ag5
ag5
ag5
ag5
ag5
ag5
ag5
ag5
ag5
ag5
ag5
ag5
ag5
ag5
ag5
ag5
ag5
ag5
ag5
ag5
ag5
ag5
ag5
ag5
ag5
ag5
ag5
ag5
ag5
ag5
ag5
ag5
ag5
ag5
ag5
ag5
ag5
ag5
ag5
ag5
ag5
ag5
ag5
ag5
ag5
ag5
ag5
ag5
ag7
ag9
ag9
ag5
ag5
ag5
ag5
ag5
ag7
ag5
ag7
ag9
ag9
ag9
ag9
ag8
ag8
ag8
ag8
ag5
ag18
ag7
ag18
ag7
ag7
ag8
ag8
ag10
ag7
ag9
ag9
ag5
ag5
ag5
aa(lp95
g5
ag5
ag5
ag5
ag5
ag5
ag5
ag5
ag5
ag5
ag5
ag5
ag5
ag5
ag5
ag5
ag5
ag5
ag5
ag5
ag5
ag5
ag5
ag5
ag5
ag5
ag5
ag5
ag5
ag5
ag5
ag5
ag5
ag5
ag5
ag5
ag5
ag5
ag5
ag5
ag5
ag5
ag5
ag5
ag5
ag5
ag5
ag5
ag5
ag5
ag5
ag5
ag5
ag5
ag5
ag5
ag5
ag5
ag5
ag5
ag5
ag5
ag5
ag5
ag5
ag5
ag16
ag7
ag7
ag9
ag5
ag5
ag7
ag7
ag7
ag7
ag9
ag9
ag9
ag8
ag7
ag9
ag9
ag14
ag8
ag7
ag18
ag7
ag18
ag9
ag18
ag5
ag9
ag7
ag5
ag9
ag9
ag5
ag5
ag5
aa(lp96
g5
ag5
ag5
ag5
ag5
ag5
ag5
ag5
ag5
ag5
ag5
ag5
ag5
ag5
ag5
ag5
ag5
ag5
ag5
ag5
ag5
ag5
ag5
ag5
ag5
ag5
ag5
ag5
ag5
ag5
ag5
ag5
ag5
ag5
ag5
ag5
ag5
ag5
ag5
ag5
ag5
ag5
ag5
ag5
ag5
ag5
ag5
ag5
ag5
ag5
ag5
ag5
ag5
ag5
ag5
ag5
ag5
ag5
ag5
ag5
ag5
ag5
ag5
ag5
ag5
ag5
ag7
ag7
ag7
ag7
ag5
ag7
ag7
ag7
ag7
ag7
ag18
ag9
ag18
ag8
ag8
ag9
ag9
ag14
ag14
ag14
ag14
ag14
ag7
ag9
ag9
ag9
ag9
ag10
ag14
ag7
ag9
ag5
ag5
ag5
aa(lp97
g5
ag5
ag5
ag5
ag5
ag5
ag5
ag5
ag5
ag5
ag5
ag5
ag5
ag5
ag5
ag5
ag5
ag5
ag5
ag5
ag5
ag5
ag5
ag5
ag5
ag5
ag5
ag5
ag5
ag5
ag5
ag5
ag5
ag5
ag5
ag5
ag5
ag5
ag5
ag5
ag5
ag5
ag5
ag5
ag5
ag5
ag5
ag5
ag5
ag5
ag5
ag5
ag5
ag5
ag5
ag5
ag5
ag5
ag5
ag5
ag5
ag5
ag5
ag5
ag5
ag7
ag7
ag7
ag7
ag5
ag7
ag5
ag7
ag7
ag7
ag16
ag11
ag11
ag8
ag8
ag8
ag7
ag9
ag14
ag9
ag18
ag18
ag7
ag9
ag9
ag5
ag18
ag9
ag9
ag14
ag7
ag7
ag7
ag7
ag5
aa(lp98
g5
ag5
ag5
ag5
ag5
ag5
ag5
ag5
ag5
ag5
ag5
ag5
ag5
ag5
ag5
ag5
ag5
ag5
ag5
ag5
ag5
ag5
ag5
ag5
ag5
ag5
ag5
ag5
ag5
ag5
ag5
ag5
ag5
ag5
ag5
ag5
ag5
ag5
ag5
ag5
ag5
ag5
ag5
ag5
ag5
ag5
ag5
ag5
ag5
ag5
ag5
ag5
ag5
ag5
ag5
ag5
ag5
ag5
ag5
ag5
ag5
ag5
ag5
ag5
ag5
ag5
ag5
ag5
ag5
ag7
ag5
ag7
ag10
ag7
ag10
ag10
ag7
ag11
ag10
ag7
ag7
ag11
ag11
ag7
ag7
ag9
ag9
ag9
ag7
ag8
ag9
ag7
ag9
ag16
ag14
ag7
ag7
ag5
ag7
ag5
aa(lp99
g5
ag5
ag5
ag5
ag5
ag5
ag5
ag5
ag5
ag5
ag5
ag5
ag5
ag5
ag5
ag5
ag5
ag5
ag5
ag5
ag5
ag5
ag5
ag5
ag5
ag5
ag5
ag5
ag5
ag5
ag5
ag5
ag5
ag5
ag5
ag5
ag5
ag5
ag5
ag5
ag5
ag5
ag5
ag5
ag5
ag5
ag5
ag5
ag5
ag5
ag5
ag5
ag5
ag5
ag5
ag5
ag5
ag5
ag5
ag5
ag5
ag5
ag5
ag5
ag5
ag5
ag5
ag5
ag5
ag5
ag5
ag10
ag8
ag7
ag7
ag7
ag10
ag10
ag10
ag18
ag7
ag7
ag7
ag7
ag7
ag7
ag7
ag7
ag16
ag8
ag8
ag9
ag18
ag7
ag14
ag7
ag7
ag7
ag7
ag5
aa(lp100
g5
ag5
ag5
ag5
ag5
ag5
ag5
ag5
ag5
ag5
ag5
ag5
ag5
ag5
ag5
ag5
ag5
ag5
ag5
ag5
ag5
ag5
ag5
ag5
ag5
ag5
ag5
ag5
ag5
ag5
ag5
ag5
ag5
ag5
ag5
ag5
ag5
ag5
ag5
ag5
ag5
ag5
ag5
ag5
ag5
ag5
ag5
ag5
ag5
ag5
ag5
ag5
ag5
ag5
ag5
ag5
ag5
ag5
ag5
ag5
ag5
ag5
ag5
ag5
ag5
ag5
ag5
ag5
ag5
ag5
ag5
ag14
ag14
ag14
ag8
ag8
ag10
ag10
ag7
ag18
ag7
ag7
ag7
ag8
ag16
ag9
ag7
ag10
ag7
ag9
ag8
ag8
ag8
ag7
ag8
ag7
ag7
ag10
ag10
ag5
aa(lp101
g5
ag5
ag5
ag5
ag5
ag5
ag5
ag5
ag5
ag5
ag5
ag5
ag5
ag5
ag5
ag5
ag5
ag5
ag5
ag5
ag5
ag5
ag5
ag5
ag5
ag5
ag5
ag5
ag5
ag5
ag5
ag5
ag5
ag5
ag5
ag5
ag5
ag5
ag5
ag5
ag5
ag5
ag5
ag5
ag5
ag5
ag5
ag5
ag5
ag5
ag5
ag5
ag5
ag5
ag5
ag5
ag5
ag5
ag5
ag5
ag5
ag5
ag5
ag5
ag5
ag5
ag5
ag5
ag5
ag5
ag5
ag7
ag14
ag7
ag8
ag16
ag8
ag8
ag7
ag18
ag18
ag7
ag8
ag8
ag7
ag9
ag9
ag10
ag18
ag7
ag18
ag8
ag7
ag7
ag8
ag8
ag8
ag10
ag7
ag5
aa(lp102
g5
ag5
ag5
ag5
ag5
ag5
ag5
ag5
ag5
ag5
ag5
ag5
ag5
ag5
ag5
ag5
ag5
ag5
ag5
ag5
ag5
ag5
ag5
ag5
ag5
ag5
ag5
ag5
ag5
ag5
ag5
ag5
ag5
ag5
ag5
ag5
ag5
ag5
ag5
ag5
ag5
ag5
ag5
ag5
ag5
ag5
ag5
ag5
ag5
ag5
ag5
ag5
ag5
ag5
ag5
ag5
ag5
ag5
ag5
ag5
ag5
ag5
ag5
ag5
ag5
ag5
ag5
ag5
ag5
ag5
ag5
ag7
ag14
ag8
ag7
ag7
ag7
ag7
ag7
ag7
ag7
ag10
ag8
ag8
ag8
ag9
ag9
ag9
ag7
ag7
ag18
ag7
ag8
ag8
ag8
ag8
ag8
ag10
ag10
ag5
aa(lp103
g5
ag5
ag5
ag5
ag5
ag5
ag5
ag5
ag5
ag5
ag5
ag5
ag5
ag5
ag5
ag5
ag5
ag5
ag5
ag5
ag5
ag5
ag5
ag5
ag5
ag5
ag5
ag5
ag5
ag5
ag5
ag5
ag5
ag5
ag5
ag5
ag5
ag5
ag5
ag5
ag5
ag5
ag5
ag5
ag5
ag5
ag5
ag5
ag5
ag5
ag5
ag5
ag5
ag5
ag5
ag5
ag5
ag5
ag5
ag5
ag5
ag5
ag5
ag5
ag5
ag5
ag5
ag9
ag5
ag5
ag7
ag5
ag14
ag7
ag7
ag11
ag11
ag7
ag7
ag7
ag7
ag7
ag8
ag14
ag10
ag9
ag9
ag18
ag18
ag18
ag7
ag7
ag8
ag7
ag16
ag7
ag7
ag10
ag10
ag5
aa(lp104
g5
ag5
ag5
ag5
ag5
ag5
ag5
ag5
ag5
ag5
ag5
ag5
ag5
ag5
ag5
ag5
ag5
ag5
ag5
ag5
ag5
ag5
ag5
ag5
ag5
ag5
ag5
ag5
ag5
ag5
ag5
ag5
ag5
ag5
ag5
ag5
ag5
ag5
ag5
ag5
ag5
ag5
ag5
ag5
ag5
ag5
ag5
ag5
ag5
ag5
ag5
ag5
ag5
ag5
ag5
ag5
ag5
ag5
ag5
ag5
ag5
ag5
ag5
ag5
ag5
ag5
ag5
ag9
ag9
ag7
ag10
ag10
ag14
ag8
ag8
ag7
ag7
ag10
ag7
ag7
ag7
ag7
ag14
ag7
ag14
ag7
ag8
ag8
ag9
ag9
ag8
ag8
ag7
ag7
ag7
ag7
ag7
ag10
ag10
ag5
aa(lp105
g5
ag5
ag5
ag5
ag5
ag5
ag5
ag5
ag5
ag5
ag5
ag5
ag5
ag5
ag5
ag5
ag5
ag5
ag5
ag5
ag5
ag5
ag5
ag5
ag5
ag5
ag5
ag5
ag5
ag5
ag5
ag5
ag5
ag5
ag5
ag5
ag5
ag5
ag5
ag5
ag5
ag5
ag5
ag5
ag5
ag5
ag5
ag5
ag5
ag5
ag5
ag5
ag5
ag5
ag5
ag5
ag5
ag5
ag5
ag5
ag5
ag5
ag5
ag5
ag5
ag5
ag5
ag5
ag9
ag7
ag7
ag10
ag14
ag14
ag7
ag7
ag7
ag7
ag10
ag7
ag7
ag14
ag7
ag14
ag8
ag8
ag8
ag8
ag7
ag9
ag9
ag9
ag7
ag8
ag7
ag14
ag5
ag5
ag10
ag5
aa(lp106
g5
ag5
ag5
ag5
ag5
ag5
ag5
ag5
ag5
ag5
ag5
ag5
ag5
ag5
ag5
ag5
ag5
ag5
ag5
ag5
ag5
ag5
ag5
ag5
ag5
ag5
ag5
ag5
ag5
ag5
ag5
ag5
ag5
ag5
ag5
ag5
ag5
ag5
ag5
ag5
ag5
ag5
ag5
ag5
ag5
ag5
ag5
ag5
ag5
ag5
ag5
ag5
ag5
ag5
ag5
ag5
ag5
ag5
ag5
ag5
ag5
ag5
ag5
ag5
ag5
ag5
ag5
ag5
ag7
ag14
ag14
ag14
ag14
ag8
ag8
ag7
ag7
ag7
ag7
ag16
ag10
ag14
ag7
ag14
ag7
ag8
ag11
ag9
ag11
ag9
ag9
ag9
ag14
ag7
ag8
ag14
ag7
ag5
ag5
ag5
aa(lp107
g5
ag5
ag5
ag5
ag5
ag5
ag5
ag5
ag5
ag5
ag5
ag5
ag5
ag5
ag5
ag5
ag5
ag5
ag5
ag5
ag5
ag5
ag5
ag5
ag5
ag5
ag5
ag5
ag5
ag5
ag5
ag5
ag5
ag5
ag5
ag5
ag5
ag5
ag5
ag5
ag5
ag5
ag5
ag5
ag5
ag5
ag5
ag5
ag5
ag5
ag5
ag5
ag5
ag5
ag5
ag5
ag5
ag5
ag5
ag5
ag5
ag5
ag5
ag5
ag5
ag5
ag5
ag7
ag16
ag10
ag10
ag14
ag14
ag5
ag7
ag7
ag11
ag7
ag7
ag9
ag7
ag14
ag9
ag7
ag9
ag11
ag5
ag11
ag10
ag8
ag8
ag8
ag9
ag14
ag14
ag7
ag5
ag5
ag5
ag5
aa(lp108
g5
ag5
ag5
ag5
ag5
ag5
ag5
ag5
ag5
ag5
ag5
ag5
ag5
ag5
ag5
ag5
ag5
ag5
ag5
ag5
ag5
ag5
ag5
ag5
ag5
ag5
ag5
ag5
ag5
ag5
ag5
ag5
ag5
ag5
ag5
ag5
ag5
ag5
ag5
ag5
ag5
ag5
ag5
ag5
ag5
ag5
ag5
ag5
ag5
ag5
ag5
ag5
ag5
ag5
ag5
ag5
ag5
ag5
ag5
ag5
ag5
ag5
ag5
ag5
ag5
ag5
ag5
ag7
ag10
ag5
ag14
ag11
ag18
ag8
ag8
ag7
ag11
ag7
ag10
ag7
ag9
ag9
ag9
ag9
ag9
ag9
ag18
ag8
ag8
ag8
ag9
ag7
ag7
ag9
ag11
ag18
ag5
ag5
ag5
ag5
aa(lp109
g5
ag5
ag5
ag5
ag5
ag5
ag5
ag5
ag5
ag5
ag5
ag5
ag5
ag5
ag5
ag5
ag5
ag5
ag5
ag5
ag5
ag5
ag5
ag5
ag5
ag5
ag5
ag5
ag5
ag5
ag5
ag5
ag5
ag5
ag5
ag5
ag5
ag5
ag5
ag5
ag5
ag5
ag5
ag5
ag5
ag5
ag5
ag5
ag5
ag5
ag5
ag5
ag5
ag5
ag5
ag5
ag5
ag5
ag5
ag5
ag5
ag5
ag5
ag5
ag5
ag5
ag7
ag5
ag10
ag5
ag5
ag14
ag14
ag14
ag8
ag7
ag10
ag7
ag10
ag7
ag7
ag9
ag5
ag9
ag9
ag9
ag9
ag8
ag7
ag8
ag9
ag5
ag9
ag11
ag5
ag5
ag18
ag5
ag5
ag5
aa(lp110
g5
ag5
ag5
ag5
ag5
ag5
ag5
ag5
ag5
ag5
ag5
ag5
ag5
ag5
ag5
ag5
ag5
ag5
ag5
ag5
ag5
ag5
ag5
ag5
ag5
ag5
ag5
ag5
ag5
ag5
ag5
ag5
ag5
ag5
ag5
ag5
ag5
ag5
ag5
ag5
ag5
ag5
ag5
ag5
ag5
ag5
ag5
ag5
ag5
ag5
ag5
ag5
ag5
ag5
ag5
ag5
ag5
ag5
ag5
ag5
ag5
ag5
ag5
ag5
ag5
ag5
ag7
ag10
ag7
ag7
ag5
ag7
ag14
ag8
ag8
ag7
ag7
ag7
ag7
ag10
ag7
ag7
ag9
ag5
ag18
ag9
ag10
ag7
ag9
ag9
ag9
ag9
ag9
ag8
ag8
ag7
ag5
ag5
ag5
ag5
aa(lp111
g5
ag5
ag5
ag5
ag5
ag5
ag5
ag5
ag5
ag5
ag5
ag5
ag5
ag5
ag5
ag5
ag5
ag5
ag5
ag5
ag5
ag5
ag5
ag5
ag5
ag5
ag5
ag5
ag5
ag5
ag5
ag5
ag5
ag5
ag5
ag5
ag5
ag5
ag5
ag5
ag5
ag5
ag5
ag5
ag5
ag5
ag5
ag5
ag5
ag5
ag5
ag5
ag5
ag5
ag5
ag5
ag5
ag5
ag5
ag5
ag5
ag5
ag5
ag5
ag5
ag5
ag16
ag7
ag7
ag5
ag7
ag14
ag14
ag9
ag7
ag7
ag7
ag7
ag7
ag10
ag7
ag7
ag5
ag5
ag10
ag10
ag7
ag7
ag5
ag9
ag7
ag9
ag8
ag8
ag9
ag9
ag7
ag5
ag5
ag5
aa(lp112
g5
ag5
ag5
ag5
ag5
ag5
ag5
ag5
ag5
ag5
ag5
ag5
ag5
ag5
ag5
ag5
ag5
ag5
ag5
ag5
ag5
ag5
ag5
ag5
ag5
ag5
ag5
ag5
ag5
ag5
ag5
ag5
ag5
ag5
ag5
ag5
ag5
ag5
ag5
ag5
ag5
ag5
ag5
ag5
ag5
ag5
ag5
ag5
ag5
ag5
ag5
ag5
ag5
ag5
ag5
ag5
ag5
ag5
ag5
ag5
ag5
ag5
ag5
ag5
ag5
ag5
ag5
ag5
ag5
ag5
ag5
ag5
ag5
ag5
ag5
ag5
ag5
ag5
ag5
ag5
ag5
ag5
ag5
ag5
ag5
ag5
ag5
ag5
ag5
ag5
ag5
ag5
ag5
ag5
ag5
ag5
ag5
ag5
ag5
ag5
aasS'settlements'
p113
(lp114
(iapp.models
Settlement
p115
(dp116
S'y'
p117
I19
sS'x'
p118
I40
sS'type'
p119
S'town'
p120
sS'name'
p121
S'Eyuha'
p122
sba(iapp.models
Settlement
p123
(dp124
g117
I82
sg118
I66
sg119
g120
sg121
S'Oluydei'
p125
sba(iapp.models
Settlement
p126
(dp127
g117
I30
sg118
I50
sg119
S'village'
p128
sg121
S'Ouyeia'
p129
sba(iapp.models
Settlement
p130
(dp131
g117
I86
sg118
I88
sg119
g120
sg121
S'Lmindebc'
p132
sba(iapp.models
Settlement
p133
(dp134
g117
I33
sg118
I62
sg119
g128
sg121
S'Tmabc'
p135
sba(iapp.models
Settlement
p136
(dp137
g117
I42
sg118
I31
sg119
g120
sg121
S'Nlimjihifg'
p138
sba(iapp.models
Settlement
p139
(dp140
g117
I45
sg118
I53
sg119
g120
sg121
S'Nywdia'
p141
sba(iapp.models
Settlement
p142
(dp143
g117
I42
sg118
I9
sg119
g120
sg121
S'Teiya'
p144
sba(iapp.models
Settlement
p145
(dp146
g117
I56
sg118
I17
sg119
g128
sg121
S'Olmidebc'
p147
sba(iapp.models
Settlement
p148
(dp149
g117
I67
sg118
I64
sg119
g120
sg121
S'Rludbas'
p150
sba(iapp.models
Settlement
p151
(dp152
g117
I53
sg118
I62
sg119
S'city'
p153
sg121
S'Ogdia'
p154
sba(iapp.models
Settlement
p155
(dp156
g117
I27
sg118
I14
sg119
g128
sg121
S'Troha'
p157
sba(iapp.models
Settlement
p158
(dp159
g117
I98
sg118
I66
sg119
g128
sg121
S'Wema'
p160
sba(iapp.models
Settlement
p161
(dp162
g117
I53
sg118
I71
sg119
g128
sg121
S'Teua'
p163
sba(iapp.models
Settlement
p164
(dp165
g117
I22
sg118
I26
sg119
g153
sg121
S'Oidra'
p166
sba(iapp.models
Settlement
p167
(dp168
g117
I84
sg118
I75
sg119
g120
sg121
S'Oluydeia'
p169
sba(iapp.models
Settlement
p170
(dp171
g117
I32
sg118
I44
sg119
g120
sg121
S'Lminhifgajebc'
p172
sba(iapp.models
Settlement
p173
(dp174
g117
I54
sg118
I32
sg119
g128
sg121
S'Zxyvwatra'
p175
sba(iapp.models
Settlement
p176
(dp177
g117
I55
sg118
I95
sg119
g128
sg121
S'Nreldym'
p178
sba(iapp.models
Settlement
p179
(dp180
g117
I73
sg118
I38
sg119
g120
sg121
S'Odia'
p181
sba(iapp.models
Settlement
p182
(dp183
g117
I58
sg118
I70
sg119
g120
sg121
S'Ngedeya'
p184
sba(iapp.models
Settlement
p185
(dp186
g117
I77
sg118
I50
sg119
g128
sg121
S'Nreldum'
p187
sba(iapp.models
Settlement
p188
(dp189
g117
I78
sg118
I92
sg119
g120
sg121
S'Gdeba'
p190
sba(iapp.models
Settlement
p191
(dp192
g117
I35
sg118
I39
sg119
g128
sg121
S'Aeyi'
p193
sba(iapp.models
Settlement
p194
(dp195
g117
I93
sg118
I79
sg119
g128
sg121
S'Onmojkehgedeya'
p196
sba(iapp.models
Settlement
p197
(dp198
g117
I73
sg118
I54
sg119
g128
sg121
S'Oeia'
p199
sba(iapp.models
Settlement
p200
(dp201
g117
I35
sg118
I22
sg119
g120
sg121
S'Oaei'
p202
sba(iapp.models
Settlement
p203
(dp204
g117
I68
sg118
I43
sg119
g128
sg121
S'Dzyvtirsip'
p205
sba(iapp.models
Settlement
p206
(dp207
g117
I6
sg118
I22
sg119
g153
sg121
S'Rlidbus'
p208
sba(iapp.models
Settlement
p209
(dp210
g117
I52
sg118
I75
sg119
g120
sg121
S'Ouhiteya'
p211
sba(iapp.models
Settlement
p212
(dp213
g117
I16
sg118
I28
sg119
g128
sg121
S'Nvirs'
p214
sba(iapp.models
Settlement
p215
(dp216
g117
I63
sg118
I39
sg119
g128
sg121
S'Yvwaturs'
p217
sba(iapp.models
Settlement
p218
(dp219
g117
I10
sg118
I21
sg119
g128
sg121
S'Tmebc'
p220
sba(iapp.models
Settlement
p221
(dp222
g117
I19
sg118
I26
sg119
g128
sg121
S'Vwitra'
p223
sba(iapp.models
Settlement
p224
(dp225
g117
I60
sg118
I40
sg119
g128
sg121
S'Dvewtirs'
p226
sba(iapp.models
Settlement
p227
(dp228
g117
I32
sg118
I35
sg119
g120
sg121
S'Frosi'
p229
sba(iapp.models
Settlement
p230
(dp231
g117
I85
sg118
I93
sg119
g128
sg121
S'Ouifdersa'
p232
sba(iapp.models
Settlement
p233
(dp234
g117
I21
sg118
I34
sg119
g153
sg121
S'Wdei'
p235
sba(iapp.models
Settlement
p236
(dp237
g117
I40
sg118
I23
sg119
g120
sg121
S'Yvwetrisp'
p238
sba(iapp.models
Settlement
p239
(dp240
g117
I90
sg118
I94
sg119
g128
sg121
S'Oyha'
p241
sba(iapp.models
Settlement
p242
(dp243
g117
I70
sg118
I39
sg119
g128
sg121
S'Gtarpul'
p244
sba(iapp.models
Settlement
p245
(dp246
g117
I41
sg118
I55
sg119
g120
sg121
S'Gdomba'
p247
sba(iapp.models
Settlement
p248
(dp249
g117
I69
sg118
I34
sg119
g128
sg121
S'Gdiba'
p250
sba(iapp.models
Settlement
p251
(dp252
g117
I48
sg118
I37
sg119
g120
sg121
S'Frusi'
p253
sba(iapp.models
Settlement
p254
(dp255
g117
I4
sg118
I44
sg119
g120
sg121
S'Zyvras'
p256
sba(iapp.models
Settlement
p257
(dp258
g117
I51
sg118
I33
sg119
g120
sg121
S'Dzoxyvwetras'
p259
sba(iapp.models
Settlement
p260
(dp261
g117
I53
sg118
I12
sg119
g128
sg121
S'Vnysp'
p262
sba(iapp.models
Settlement
p263
(dp264
g117
I9
sg118
I10
sg119
g153
sg121
S'Vwitursipqunol'
p265
sba(iapp.models
Settlement
p266
(dp267
g117
I88
sg118
I75
sg119
g128
sg121
S'Triha'
p268
sba(iapp.models
Settlement
p269
(dp270
g117
I17
sg118
I35
sg119
g120
sg121
S'Zxyvwitra'
p271
sba(iapp.models
Settlement
p272
(dp273
g117
I42
sg118
I19
sg119
g120
sg121
S'Vwutra'
p274
sba(iapp.models
Settlement
p275
(dp276
g117
I19
sg118
I46
sg119
g120
sg121
S'Dzyvwytra'
p277
sba(iapp.models
Settlement
p278
(dp279
g117
I55
sg118
I22
sg119
g120
sg121
S'Truha'
p280
sba(iapp.models
Settlement
p281
(dp282
g117
I63
sg118
I64
sg119
g128
sg121
S'Zyvtursaq'
p283
sba(iapp.models
Settlement
p284
(dp285
g117
I32
sg118
I26
sg119
g153
sg121
S'Nterya'
p286
sba(iapp.models
Settlement
p287
(dp288
g117
I10
sg118
I18
sg119
g128
sg121
S'Uhyeia'
p289
sba(iapp.models
Settlement
p290
(dp291
g117
I43
sg118
I58
sg119
g120
sg121
S'Waei'
p292
sba(iapp.models
Settlement
p293
(dp294
g117
I8
sg118
I33
sg119
g153
sg121
S'Orya'
p295
sba(iapp.models
Settlement
p296
(dp297
g117
I27
sg118
I33
sg119
g128
sg121
S'Ouera'
p298
sba(iapp.models
Settlement
p299
(dp300
g117
I44
sg118
I70
sg119
g120
sg121
S'Zxyvweturs'
p301
sba(iapp.models
Settlement
p302
(dp303
g117
I12
sg118
I42
sg119
g128
sg121
S'Vnosp'
p304
sbasg121
VKarand
p305
sb.