(iapp.views
World
p0
(dp1
S'tiles'
p2
(lp3
(lp4
S'S'
p5
ag5
ag5
ag5
ag5
ag5
ag5
ag5
ag5
ag5
ag5
ag5
ag5
ag5
ag5
ag5
ag5
ag5
ag5
ag5
ag5
ag5
ag5
ag5
ag5
ag5
ag5
ag5
ag5
ag5
ag5
ag5
ag5
ag5
ag5
ag5
ag5
ag5
ag5
ag5
ag5
ag5
ag5
ag5
ag5
ag5
ag5
ag5
ag5
ag5
ag5
ag5
ag5
ag5
ag5
ag5
ag5
ag5
ag5
ag5
ag5
ag5
ag5
ag5
ag5
ag5
ag5
ag5
ag5
ag5
ag5
ag5
ag5
ag5
ag5
ag5
ag5
ag5
ag5
ag5
ag5
ag5
ag5
ag5
ag5
ag5
ag5
ag5
ag5
ag5
ag5
ag5
ag5
ag5
ag5
ag5
ag5
ag5
ag5
ag5
ag5
ag5
ag5
ag5
ag5
ag5
ag5
ag5
ag5
ag5
ag5
ag5
ag5
ag5
ag5
ag5
ag5
ag5
ag5
ag5
ag5
ag5
ag5
ag5
ag5
ag5
ag5
ag5
ag5
ag5
ag5
ag5
ag5
ag5
ag5
ag5
ag5
ag5
ag5
ag5
ag5
ag5
ag5
ag5
ag5
ag5
ag5
ag5
ag5
ag5
aa(lp6
g5
ag5
ag5
ag5
ag5
ag5
ag5
ag5
ag5
ag5
ag5
ag5
ag5
ag5
ag5
ag5
ag5
ag5
ag5
ag5
ag5
ag5
ag5
ag5
ag5
ag5
ag5
ag5
ag5
ag5
ag5
ag5
ag5
ag5
ag5
ag5
ag5
ag5
ag5
ag5
ag5
ag5
ag5
ag5
ag5
ag5
ag5
ag5
ag5
ag5
ag5
ag5
ag5
ag5
ag5
ag5
ag5
ag5
ag5
ag5
ag5
ag5
ag5
ag5
ag5
ag5
ag5
ag5
ag5
ag5
ag5
ag5
ag5
ag5
ag5
ag5
ag5
ag5
ag5
ag5
ag5
ag5
ag5
ag5
ag5
ag5
ag5
ag5
ag5
ag5
ag5
ag5
ag5
aS'P'
p7
ag7
ag7
ag7
ag7
ag5
ag5
ag5
ag5
ag5
ag5
ag5
ag5
ag5
ag5
ag5
ag5
ag5
ag5
ag5
ag5
ag5
ag5
ag5
ag5
ag5
ag5
ag5
ag5
ag5
ag5
ag5
ag5
ag5
ag5
ag5
ag5
ag5
ag5
ag5
ag5
ag5
ag5
ag5
ag5
ag5
ag5
ag5
ag5
ag5
ag5
ag5
ag5
ag5
ag5
ag5
ag5
aa(lp8
g5
ag5
ag5
ag5
ag5
ag5
ag5
ag5
ag5
ag5
ag5
ag5
ag5
ag5
ag5
ag5
ag5
ag5
ag5
ag5
ag5
ag5
ag5
ag5
ag5
ag5
ag5
ag5
ag5
ag5
ag5
ag5
ag5
ag5
ag5
ag5
ag5
ag5
ag5
ag5
ag5
ag5
ag5
ag5
ag5
ag5
ag5
ag5
ag5
ag5
ag5
ag5
ag5
ag5
ag5
ag5
ag5
ag5
ag5
ag5
ag5
ag5
ag5
ag5
ag5
ag5
ag5
ag5
ag5
ag5
ag5
ag5
ag5
ag5
ag5
ag5
ag5
ag5
ag5
ag5
ag5
ag5
ag5
ag5
ag5
ag5
ag5
ag5
ag5
aS'M'
p9
ag9
ag9
ag9
ag5
ag7
ag7
ag5
ag7
ag7
ag7
ag5
ag5
ag5
ag5
ag5
ag5
ag5
ag5
ag5
ag5
ag5
ag5
ag5
ag5
ag5
ag5
ag5
ag5
ag5
ag5
ag5
ag5
ag5
ag5
ag5
ag5
ag5
ag5
ag5
ag5
ag5
ag5
ag5
ag5
ag5
ag5
ag5
ag5
ag5
ag5
ag5
ag5
ag5
ag5
ag5
ag5
ag5
ag5
ag5
ag5
aa(lp10
g5
ag5
ag5
ag5
ag5
ag5
ag5
ag5
ag5
ag5
ag5
ag5
ag5
ag5
ag5
ag5
ag5
ag5
ag5
ag5
ag5
ag5
ag5
ag5
ag5
ag5
ag5
ag5
ag5
ag5
ag5
ag5
ag5
ag5
ag5
ag5
ag5
ag5
ag5
ag5
ag5
ag5
ag5
ag5
ag5
ag5
ag5
ag5
ag5
ag5
ag5
ag5
ag5
ag5
ag5
ag5
ag5
ag5
ag5
ag5
ag5
ag5
ag5
ag5
ag5
ag5
ag5
ag5
ag5
ag5
ag5
ag5
ag5
ag5
ag5
ag5
ag5
ag9
ag9
ag5
ag5
ag5
ag5
ag5
ag5
ag5
ag7
ag9
ag9
ag9
ag9
ag5
ag9
ag7
ag7
ag9
ag7
ag7
ag7
ag5
ag5
ag5
ag5
ag5
ag5
ag5
ag5
ag5
ag5
ag5
ag5
ag5
ag5
ag5
ag5
ag5
ag5
ag5
ag5
ag5
ag5
ag5
ag5
ag5
ag5
ag5
ag5
ag5
ag5
ag5
ag5
ag5
ag5
ag5
ag5
ag5
ag5
ag5
ag5
ag5
ag5
ag5
ag5
ag5
ag5
ag5
ag5
ag5
ag5
ag5
aa(lp11
g5
ag5
ag5
ag5
ag5
ag5
ag5
ag5
ag5
ag5
ag5
ag5
ag5
ag5
ag5
ag5
ag5
ag5
ag5
ag5
ag5
ag5
ag5
ag5
ag5
ag5
ag5
ag5
ag5
ag5
ag5
ag5
ag5
ag5
ag5
ag5
ag5
ag5
ag5
ag5
ag5
ag5
ag5
ag5
ag5
ag5
ag5
ag5
ag5
ag5
ag5
ag5
ag5
ag5
ag5
ag5
ag5
ag5
ag5
ag5
ag5
ag5
ag5
ag5
ag5
ag5
ag5
ag5
ag5
ag5
ag5
ag5
ag5
ag7
ag7
ag7
ag7
ag9
ag9
ag7
ag5
ag5
ag5
ag5
ag5
ag7
ag9
ag5
ag5
ag5
ag7
ag9
ag9
ag7
ag9
ag9
ag9
ag9
ag9
ag5
ag5
ag5
ag5
ag5
ag5
ag5
ag5
ag5
ag5
ag5
ag5
ag5
ag5
ag5
ag5
ag5
ag5
ag5
ag5
ag5
ag5
ag5
ag5
ag5
ag5
ag5
ag5
ag5
ag5
ag5
ag5
ag5
ag5
ag5
ag5
ag5
ag5
ag5
ag5
ag5
ag5
ag5
ag5
ag5
ag5
ag5
ag5
ag5
ag5
ag5
aa(lp12
g5
ag5
ag5
ag5
ag5
ag5
ag5
ag5
ag5
ag5
ag5
ag5
ag5
ag5
ag5
ag5
ag5
ag5
ag5
ag5
ag5
ag5
ag5
ag5
ag5
ag5
ag5
ag5
ag5
ag5
ag5
ag5
ag5
ag5
ag5
ag5
ag5
ag5
ag5
ag5
ag5
ag5
ag5
ag5
ag5
ag5
ag5
ag5
ag5
ag5
ag5
ag5
ag5
ag5
ag5
ag5
ag5
ag5
ag5
ag5
ag5
ag5
ag5
ag5
ag5
ag5
ag5
ag5
ag5
ag5
ag5
ag5
ag7
ag7
ag7
ag5
ag9
ag5
ag9
ag5
ag7
ag5
ag5
ag5
ag5
ag9
ag9
ag9
ag5
ag7
ag5
ag7
ag7
ag5
ag9
ag7
ag7
ag7
ag5
ag7
ag7
ag7
ag7
ag5
ag5
ag5
ag5
ag5
ag5
ag5
ag5
ag5
ag5
ag5
ag5
ag5
ag5
ag5
ag5
ag5
ag5
ag5
ag5
ag5
ag5
ag5
ag5
ag5
ag5
ag5
ag5
ag5
ag5
ag5
ag5
ag5
ag5
ag5
ag5
ag5
ag5
ag5
ag5
ag5
ag5
ag5
ag5
ag5
ag5
ag5
aa(lp13
g5
ag5
ag5
ag5
ag5
ag5
ag5
ag5
ag5
ag5
ag5
ag5
ag5
ag5
ag5
ag5
ag5
ag5
ag5
ag5
ag5
ag5
ag5
ag5
ag5
ag5
ag5
ag5
ag5
ag5
ag5
ag5
ag5
ag5
ag5
ag5
ag5
ag5
ag5
ag5
ag5
ag5
ag5
ag5
ag5
ag5
ag5
ag5
ag5
ag5
ag5
ag5
ag5
ag5
ag5
ag5
ag5
ag5
ag5
ag5
ag5
ag5
ag5
ag5
ag5
ag5
ag5
ag5
ag5
ag5
ag5
ag7
ag5
ag5
ag7
ag7
ag5
ag9
ag9
ag7
ag7
ag5
ag5
ag5
ag5
ag5
ag9
ag5
ag9
ag7
ag5
ag7
ag5
ag7
ag5
ag9
ag7
ag7
ag7
ag5
ag7
ag7
ag9
ag7
ag5
ag5
ag5
ag5
ag5
ag5
ag5
ag5
ag5
ag5
ag5
ag5
ag5
ag5
ag5
ag5
ag5
ag5
ag5
ag5
ag5
ag5
ag5
ag5
ag5
ag5
ag5
ag5
ag5
ag5
ag5
ag5
ag5
ag5
ag5
ag5
ag5
ag5
ag5
ag5
ag5
ag5
ag5
ag5
ag5
ag5
aa(lp14
g5
ag5
ag5
ag5
ag5
ag5
ag5
ag5
ag5
ag5
ag5
ag5
ag5
ag5
ag5
ag5
ag5
ag5
ag5
ag5
ag5
ag5
ag5
ag5
ag5
ag5
ag5
ag5
ag5
ag5
ag5
ag5
ag5
ag5
ag5
ag5
ag5
ag5
ag5
ag5
ag5
ag5
ag5
ag5
ag5
ag5
ag5
ag5
ag5
ag5
ag5
ag5
ag5
ag5
ag5
ag5
ag5
ag5
ag5
ag5
ag5
ag5
ag5
ag5
ag5
ag5
ag5
ag5
ag5
ag5
ag7
ag5
ag5
ag5
ag5
ag7
ag7
ag5
ag9
ag9
ag5
ag5
ag5
ag5
ag5
ag5
ag5
ag9
ag5
ag7
aS'C'
p15
ag7
ag7
ag5
ag7
ag9
ag5
ag5
ag7
ag7
ag5
ag7
ag7
ag7
ag9
ag9
ag5
ag5
ag5
ag5
ag5
ag5
ag5
ag5
ag5
ag5
ag5
ag5
ag5
ag5
ag5
ag5
ag5
ag5
ag5
ag5
ag5
ag5
ag5
ag5
ag5
ag5
ag5
ag5
ag5
ag5
ag5
ag5
ag5
ag5
ag5
ag5
ag5
ag5
ag5
ag5
ag5
ag5
ag5
ag5
aa(lp16
g5
ag5
ag5
ag5
ag5
ag5
ag5
ag5
ag5
ag5
ag5
ag5
ag5
ag5
ag5
ag5
ag5
ag5
ag5
ag5
ag5
ag5
ag5
ag5
ag5
ag5
ag5
ag5
ag5
ag5
ag5
ag5
ag5
ag5
ag5
ag5
ag5
ag5
ag5
ag5
ag5
ag5
ag5
ag5
ag5
ag5
ag5
ag5
ag5
ag5
ag5
ag5
ag5
ag5
ag5
ag5
ag5
ag5
ag5
ag5
ag5
ag5
ag5
ag5
ag5
ag5
ag5
ag5
ag5
ag5
ag7
ag7
ag5
ag5
ag5
ag7
ag5
ag9
ag9
ag9
ag9
ag9
ag9
ag5
ag5
ag5
ag5
ag5
ag5
ag9
ag5
ag5
ag7
ag5
ag9
ag5
ag9
ag5
ag7
ag7
ag7
ag7
ag7
ag9
ag7
ag5
ag7
ag5
ag5
ag5
ag5
ag5
ag5
ag5
ag5
ag5
ag5
ag5
ag5
ag5
ag5
ag5
ag5
ag5
ag5
ag5
ag5
ag5
ag5
ag5
ag5
ag5
ag5
ag5
ag5
ag5
ag5
ag5
ag5
ag5
ag5
ag5
ag5
ag5
ag5
ag5
ag5
ag5
ag5
ag5
aa(lp17
g5
ag5
ag5
ag5
ag5
ag5
ag5
ag5
ag5
ag5
ag5
ag5
ag5
ag5
ag5
ag5
ag5
ag5
ag5
ag5
ag5
ag5
ag5
ag5
ag5
ag5
ag5
ag5
ag5
ag5
ag5
ag5
ag5
ag5
ag5
ag5
ag5
ag5
ag5
ag5
ag5
ag5
ag5
ag5
ag5
ag5
ag5
ag5
ag5
ag5
ag5
ag5
ag5
ag5
ag5
ag5
ag5
ag5
ag5
ag5
ag5
ag5
ag5
ag5
ag5
ag5
ag5
ag5
ag5
ag5
ag7
ag5
ag5
ag5
ag5
ag7
ag9
ag5
ag7
ag9
ag9
ag7
ag7
ag9
ag5
ag5
ag5
ag5
ag5
ag7
ag7
ag7
ag5
ag7
ag7
ag9
ag7
ag9
ag7
ag7
ag7
ag9
ag9
ag9
ag5
ag7
ag7
ag7
ag5
ag5
ag5
ag5
ag5
ag5
ag5
ag5
ag5
ag5
ag5
ag5
ag5
ag5
ag5
ag5
ag5
ag5
ag5
ag5
ag5
ag5
ag5
ag5
ag5
ag5
ag5
ag5
ag5
ag5
ag5
ag5
ag5
ag5
ag5
ag5
ag5
ag5
ag5
ag5
ag5
ag5
aa(lp18
g5
ag5
ag5
ag5
ag5
ag5
ag5
ag5
ag5
ag5
ag5
ag5
ag5
ag5
ag5
ag5
ag5
ag5
ag5
ag5
ag5
ag5
ag5
ag5
ag5
ag5
ag5
ag5
ag5
ag5
ag5
ag5
ag5
ag5
ag5
ag5
ag5
ag5
ag5
ag5
ag5
ag5
ag5
ag5
ag5
ag5
ag5
ag5
ag5
ag5
ag5
ag5
ag5
ag5
ag5
ag5
ag5
ag5
ag5
ag5
ag5
ag5
ag5
ag5
ag5
ag5
ag5
ag5
ag7
ag5
ag5
ag7
ag7
ag7
ag7
ag9
ag5
ag7
ag5
ag9
ag7
ag7
ag7
ag5
ag5
ag5
ag5
ag5
ag7
ag7
ag7
ag7
ag7
ag5
ag5
ag7
ag7
ag7
ag9
ag7
ag9
ag9
ag9
ag7
ag9
ag7
ag7
ag5
ag5
ag5
ag5
ag5
ag5
ag5
ag5
ag5
ag5
ag5
ag5
ag5
ag5
ag5
ag5
ag5
ag5
ag5
ag5
ag5
ag5
ag5
ag5
ag5
ag5
ag5
ag5
ag5
ag5
ag5
ag5
ag5
ag5
ag5
ag5
ag5
ag5
ag5
ag5
ag5
ag5
ag5
aa(lp19
g5
ag5
ag5
ag5
ag5
ag5
ag5
ag5
ag5
ag5
ag5
ag5
ag5
ag5
ag5
ag5
ag5
ag5
ag5
ag5
ag5
ag5
ag5
ag5
ag5
ag5
ag5
ag5
ag5
ag5
ag5
ag5
ag5
ag5
ag5
ag5
ag5
ag5
ag5
ag5
ag5
ag5
ag5
ag5
ag5
ag5
ag5
ag5
ag5
ag5
ag5
ag5
ag5
ag5
ag5
ag5
ag5
ag5
ag5
ag5
ag5
ag5
ag5
ag5
ag5
ag5
ag5
ag7
ag5
ag7
ag7
ag7
ag7
ag9
ag9
ag7
ag7
ag5
ag7
ag7
ag9
ag7
ag7
ag5
ag5
ag5
ag5
ag7
ag7
ag7
ag7
ag7
ag9
ag9
ag7
ag5
ag7
ag7
ag7
ag9
ag9
ag7
ag9
ag7
ag9
ag9
ag7
ag7
ag5
ag5
ag5
ag5
ag5
ag5
ag5
ag5
ag5
ag5
ag5
ag5
ag5
ag5
ag5
ag5
ag5
ag5
ag5
ag5
ag5
ag5
ag5
ag5
ag5
ag5
ag5
ag5
ag5
ag5
ag5
ag5
ag5
ag5
ag5
ag5
ag5
ag5
ag5
ag5
ag5
ag5
aa(lp20
g5
ag5
ag5
ag5
ag5
ag5
ag5
ag5
ag5
ag5
ag5
ag5
ag5
ag5
ag5
ag5
ag5
ag5
ag5
ag5
ag5
ag5
ag5
ag5
ag5
ag5
ag5
ag5
ag5
ag5
ag5
ag5
ag5
ag5
ag5
ag5
ag5
ag5
ag5
ag5
ag5
ag5
ag5
ag5
ag5
ag5
ag5
ag5
ag5
ag5
ag5
ag5
ag5
ag5
ag5
ag5
ag5
ag5
ag5
ag5
ag5
ag5
ag5
ag5
ag5
ag5
ag5
ag5
ag7
ag7
ag7
ag5
ag7
ag15
ag7
ag7
ag7
ag15
ag5
ag9
ag7
ag7
ag7
ag5
ag5
ag5
ag7
ag7
ag7
ag7
ag7
ag7
ag7
ag9
ag7
ag7
ag7
ag7
ag7
ag7
ag7
ag9
ag7
ag7
ag9
ag9
ag15
ag7
ag5
ag5
ag5
ag5
ag5
ag5
ag5
ag5
ag5
ag5
ag5
ag5
ag5
ag5
ag5
ag5
ag5
ag5
ag5
ag5
ag5
ag5
ag5
ag5
ag5
ag5
ag5
ag5
ag5
ag5
ag5
ag5
ag5
ag5
ag5
ag5
ag5
ag5
ag5
ag5
ag5
ag5
aa(lp21
g5
ag5
ag5
ag5
ag5
ag5
ag5
ag5
ag5
ag5
ag5
ag5
ag5
ag5
ag5
ag5
ag5
ag5
ag5
ag5
ag5
ag5
ag5
ag5
ag5
ag5
ag5
ag5
ag5
ag5
ag5
ag5
ag5
ag5
ag5
ag5
ag5
ag5
ag5
ag5
ag5
ag5
ag5
ag5
ag5
ag5
ag5
ag5
ag5
ag5
ag5
ag5
ag5
ag5
ag5
ag5
ag5
ag5
ag5
ag5
ag5
ag5
ag5
ag5
ag5
ag5
ag5
ag5
ag7
ag7
ag9
ag9
ag15
ag9
ag9
ag9
ag9
ag7
ag9
ag7
ag7
ag7
ag7
ag7
ag7
ag7
ag7
ag7
ag7
ag7
ag15
ag7
ag7
ag7
ag9
ag9
ag9
ag7
ag7
ag7
ag7
ag7
ag9
ag9
ag7
ag9
ag5
ag5
ag5
ag5
ag5
ag5
ag5
ag5
ag5
ag5
ag5
ag5
ag5
ag5
ag5
ag5
ag5
ag5
ag5
ag5
ag5
ag5
ag5
ag5
ag5
ag5
ag5
ag5
ag5
ag5
ag5
ag5
ag5
ag5
ag5
ag5
ag5
ag5
ag5
ag5
ag5
ag5
ag5
ag5
aa(lp22
g5
ag5
ag5
ag5
ag5
ag5
ag5
ag5
ag5
ag5
ag5
ag5
ag5
ag5
ag5
ag5
ag5
ag5
ag5
ag5
ag5
ag5
ag5
ag5
ag5
ag5
ag5
ag7
ag5
ag7
ag7
ag5
ag5
ag5
ag5
ag5
ag5
ag5
ag5
ag5
ag5
ag5
ag5
ag5
ag5
ag5
ag5
ag5
ag7
ag5
ag5
ag5
ag7
ag7
ag5
ag5
ag7
ag5
ag5
ag7
ag5
ag5
ag5
ag5
ag5
ag5
ag7
ag7
ag5
ag7
ag7
ag9
ag9
ag9
ag7
ag7
ag7
ag9
ag7
ag7
ag7
ag7
ag7
ag7
ag7
ag7
ag7
ag7
ag7
ag7
ag7
ag7
ag7
ag7
ag7
ag9
ag9
ag9
ag7
ag7
ag7
ag5
ag7
ag7
ag5
ag5
ag5
ag5
ag5
ag5
ag5
ag5
ag5
ag5
ag5
ag5
ag5
ag5
ag5
ag5
ag5
ag5
ag5
ag5
ag5
ag5
ag5
ag5
ag5
ag5
ag5
ag5
ag5
ag5
ag5
ag5
ag5
ag5
ag5
ag5
ag5
ag5
ag5
ag5
ag5
ag5
ag5
ag5
ag5
ag5
aa(lp23
g5
ag5
ag5
ag5
ag5
ag5
ag5
ag5
ag5
ag5
ag5
ag5
ag5
ag5
ag5
ag5
ag5
ag5
ag5
ag5
ag5
ag5
ag5
ag5
ag5
ag5
ag5
ag5
ag7
ag7
ag7
ag5
ag5
ag5
ag5
ag5
ag5
ag5
ag5
ag5
ag5
ag5
ag5
ag5
ag5
ag5
ag5
ag5
ag7
ag7
ag7
ag7
ag7
ag7
ag7
ag7
ag5
ag7
ag7
ag7
ag5
ag5
ag5
ag5
ag5
ag7
ag7
ag7
ag7
ag7
ag7
ag7
ag9
ag7
ag7
ag7
ag9
ag9
ag9
ag7
ag7
ag7
ag7
ag7
ag9
ag9
ag9
ag7
ag7
ag7
ag5
ag7
ag7
ag7
ag9
ag7
ag9
ag7
ag5
ag7
ag7
ag9
ag7
ag7
ag9
ag5
ag5
ag5
ag5
ag5
ag5
ag5
ag5
ag5
ag5
ag5
ag5
ag5
ag5
ag5
ag5
ag5
ag5
ag5
ag5
ag5
ag5
ag5
ag5
ag5
ag5
ag5
ag5
ag5
ag5
ag5
ag5
ag5
ag5
ag5
ag5
ag5
ag5
ag5
ag5
ag5
ag5
ag5
ag5
ag5
aa(lp24
g5
ag5
ag5
ag5
ag5
ag5
ag5
ag5
ag5
ag5
ag5
ag5
ag5
ag5
ag5
ag5
ag5
ag5
ag5
ag5
ag5
ag5
ag5
ag5
ag5
ag5
ag5
ag7
ag7
ag9
ag9
ag9
ag5
ag5
ag5
ag5
ag5
ag5
ag5
ag5
ag5
ag5
ag5
ag5
ag5
ag5
ag5
ag7
ag7
ag7
ag7
ag7
ag7
ag7
ag7
ag7
ag9
ag7
ag7
ag9
ag5
ag5
ag5
ag5
ag5
ag7
ag7
ag7
ag7
ag7
ag7
ag5
ag9
ag7
ag7
ag9
ag9
ag7
ag7
ag9
ag7
ag7
ag7
ag7
ag7
ag9
ag7
ag7
ag7
ag7
ag7
ag9
ag7
ag9
ag7
ag5
ag7
ag9
ag7
ag7
ag7
ag9
ag7
ag7
ag7
ag9
ag9
ag5
ag5
ag5
ag9
ag9
ag5
ag5
ag5
ag5
ag5
ag5
ag5
ag5
ag5
ag5
ag5
ag5
ag5
ag5
ag5
ag5
ag5
ag5
ag5
ag5
ag5
ag5
ag5
ag5
ag5
ag5
ag5
ag5
ag5
ag5
ag5
ag5
ag5
ag5
ag5
ag5
ag5
ag5
aa(lp25
g5
ag5
ag5
ag5
ag5
ag5
ag5
ag5
ag5
ag5
ag5
ag5
ag5
ag5
ag5
ag5
ag5
ag5
ag5
ag5
ag5
ag5
ag5
ag5
ag5
ag5
ag7
ag5
ag7
ag5
ag5
ag5
ag9
ag5
ag5
ag5
ag5
ag5
ag5
ag5
ag5
ag5
ag5
ag5
ag7
ag5
ag5
ag7
ag15
ag5
ag7
ag7
ag7
ag7
ag5
ag7
ag7
ag9
ag7
ag9
ag7
ag5
ag7
ag7
ag7
ag7
ag7
ag7
ag7
ag7
ag7
ag7
ag9
ag7
ag9
ag9
ag9
ag7
ag9
ag7
ag7
ag7
ag7
ag7
ag7
ag9
ag9
ag9
ag9
ag9
ag9
ag7
ag9
ag7
ag7
ag7
ag7
ag7
ag9
ag9
ag7
ag9
ag7
ag7
ag7
ag7
ag9
ag5
ag5
ag5
ag9
ag5
ag7
ag5
ag5
ag9
ag9
ag7
ag5
ag9
ag5
ag5
ag5
ag5
ag5
ag5
ag5
ag5
ag5
ag5
ag5
ag7
ag7
ag5
ag5
ag5
ag5
ag5
ag5
ag5
ag5
ag5
ag5
ag5
ag5
ag5
ag5
ag5
ag5
ag5
aa(lp26
g5
ag5
ag5
ag5
ag5
ag5
ag5
ag5
ag5
ag5
ag5
ag5
ag5
ag5
ag5
ag5
ag5
ag5
ag5
ag5
ag5
ag5
ag5
ag5
ag5
ag5
ag5
ag5
ag5
ag7
ag5
ag5
ag7
ag5
ag5
ag5
ag5
ag5
ag5
ag5
ag5
ag5
ag5
ag5
ag7
ag5
ag7
ag7
ag7
ag5
ag7
ag7
ag7
ag5
ag5
ag5
ag9
ag7
ag7
ag9
ag5
ag7
ag5
ag7
ag7
ag7
ag7
ag7
ag9
ag7
ag7
ag7
ag7
ag9
ag5
ag5
ag9
ag9
ag7
ag7
ag7
ag7
ag7
ag9
ag7
ag7
ag7
ag7
ag7
ag7
ag9
ag9
ag9
ag9
ag7
ag7
ag7
ag7
ag9
ag9
ag9
ag9
ag9
ag9
ag9
ag9
ag5
ag9
ag5
ag9
ag5
ag7
ag5
ag5
ag9
ag7
ag7
ag9
ag9
ag7
ag7
ag5
ag7
ag5
ag5
ag5
ag5
ag5
ag5
ag5
ag5
ag7
ag7
ag5
ag5
ag5
ag5
ag5
ag5
ag5
ag5
ag5
ag5
ag5
ag5
ag5
ag5
ag5
ag5
ag5
aa(lp27
g5
ag5
ag5
ag5
ag5
ag5
ag5
ag5
ag5
ag5
ag5
ag5
ag5
ag5
ag5
ag5
ag5
ag5
ag5
ag5
ag5
ag5
ag5
ag5
ag5
ag5
ag5
ag5
ag7
ag7
ag5
ag5
ag5
ag5
ag5
ag5
ag5
ag7
ag5
ag5
ag5
ag5
ag9
ag9
ag9
ag9
ag5
ag7
ag5
ag15
ag7
ag7
ag5
ag5
ag9
ag5
ag9
ag15
ag7
ag7
ag7
ag5
ag7
ag5
ag7
ag9
ag5
ag7
ag9
ag7
ag7
ag7
ag9
ag7
ag7
ag5
ag5
ag7
ag9
ag7
ag7
ag7
ag9
ag9
ag7
ag7
ag7
ag7
ag7
ag9
ag7
ag9
ag7
ag9
ag7
ag7
ag7
ag7
ag7
ag9
ag9
ag7
ag7
ag7
ag9
ag5
ag9
ag9
ag9
ag5
ag7
ag5
ag5
ag5
ag7
ag15
ag7
ag7
ag7
ag7
ag5
ag7
ag9
ag5
ag5
ag5
ag5
ag7
ag7
ag7
ag5
ag5
ag7
ag7
ag5
ag5
ag5
ag5
ag7
ag15
ag5
ag5
ag5
ag5
ag5
ag5
ag5
ag5
ag5
ag5
aa(lp28
g5
ag5
ag5
ag5
ag5
ag5
ag5
ag5
ag5
ag5
ag5
ag5
ag5
ag5
ag5
ag5
ag5
ag5
ag5
ag5
ag5
ag5
ag5
ag5
ag5
ag5
ag5
ag5
ag9
ag9
ag5
ag5
ag5
ag5
ag5
ag5
ag7
ag7
ag7
ag5
ag5
ag5
ag5
ag7
ag7
ag9
ag7
ag5
ag5
ag7
ag7
ag5
ag5
ag5
ag9
ag15
ag7
ag7
ag7
ag7
ag7
ag5
ag5
ag5
ag5
ag9
ag9
ag9
ag9
ag15
ag7
ag9
ag5
ag7
ag7
ag5
ag7
ag7
ag9
ag9
ag9
ag7
ag7
ag9
ag7
ag7
ag7
ag7
ag7
ag7
ag9
ag9
ag9
ag9
ag7
ag5
ag7
ag9
ag9
ag9
ag9
ag7
ag9
ag9
ag9
ag9
ag9
ag9
ag7
ag5
ag5
ag7
ag7
ag7
ag7
ag7
ag9
ag7
ag7
ag5
ag7
ag5
ag9
ag5
ag5
ag5
ag5
ag7
ag7
ag5
ag7
ag7
ag7
ag5
ag5
ag5
ag5
ag7
ag7
ag5
ag5
ag5
ag5
ag5
ag5
ag5
ag5
ag5
ag5
ag5
aa(lp29
g5
ag5
ag5
ag5
ag5
ag5
ag5
ag5
ag5
ag5
ag5
ag5
ag5
ag7
ag5
ag5
ag5
ag5
ag5
ag5
ag5
ag5
ag5
ag5
ag5
ag5
ag9
ag9
ag9
ag9
ag9
ag5
ag5
ag5
ag5
ag7
ag9
ag7
ag5
ag7
ag7
ag5
ag7
ag9
ag9
ag9
ag9
ag5
ag5
ag7
ag7
ag5
ag5
ag9
ag9
ag15
ag7
ag7
ag7
ag7
ag5
ag7
ag7
ag5
ag9
ag7
ag9
ag9
ag7
ag7
ag7
ag7
ag9
ag7
ag7
ag5
ag15
ag9
ag7
ag9
ag7
ag9
ag7
ag9
ag9
ag7
ag7
ag7
ag7
ag7
ag7
ag9
ag7
ag7
ag7
ag7
ag7
ag7
ag7
ag9
ag7
ag7
ag7
ag9
ag9
ag9
ag9
ag5
ag7
ag5
ag5
ag5
ag5
ag5
ag5
ag5
ag7
ag15
ag7
ag9
ag7
ag7
ag9
ag9
ag5
ag5
ag7
ag5
ag7
ag7
ag9
ag9
ag7
ag5
ag5
ag7
ag7
ag7
ag7
ag7
ag5
ag5
ag5
ag5
ag5
ag5
ag5
ag5
ag5
ag5
aa(lp30
g5
ag5
ag5
ag5
ag5
ag5
ag5
ag5
ag5
ag5
ag5
ag5
ag7
ag5
ag5
ag5
ag5
ag5
ag5
ag5
ag5
ag5
ag5
ag5
ag5
ag5
ag9
ag9
ag9
ag9
ag9
ag9
ag5
ag5
ag7
ag9
ag5
ag7
ag9
ag9
ag5
ag5
ag9
ag9
ag9
ag9
ag9
ag5
ag5
ag5
ag5
ag5
ag5
ag5
ag9
ag5
ag7
ag7
ag7
ag7
ag5
ag5
ag7
ag7
ag7
ag9
ag7
ag7
ag9
ag7
ag7
ag7
ag7
ag9
ag7
ag7
ag9
ag9
ag9
ag7
ag9
ag7
ag9
ag9
ag7
ag9
ag7
ag7
ag7
ag7
ag9
ag9
ag9
ag9
ag7
ag5
ag5
ag9
ag9
ag7
ag7
ag9
ag9
ag9
ag9
ag9
ag7
ag9
ag5
ag5
ag5
ag5
ag5
ag5
ag5
ag5
ag9
ag7
ag7
ag7
ag7
ag5
ag5
ag5
ag9
ag5
ag5
ag7
ag5
ag7
ag9
ag9
ag9
ag5
ag5
ag7
ag5
ag7
ag7
ag5
ag5
ag5
ag5
ag5
ag5
ag5
ag5
ag5
ag5
ag5
aa(lp31
g5
ag5
ag5
ag5
ag5
ag5
ag5
ag5
ag5
ag5
ag5
ag5
ag5
ag7
ag5
ag5
ag5
ag5
ag5
ag5
ag5
ag5
ag5
ag5
ag5
ag7
ag5
ag9
ag5
ag9
ag9
ag9
ag9
ag5
ag9
ag7
ag7
ag7
ag7
ag7
ag9
ag5
ag7
ag9
ag9
ag9
ag7
ag7
ag7
ag7
ag7
ag5
ag5
ag5
ag7
ag9
ag7
ag7
ag5
ag5
ag7
ag7
ag9
ag7
ag5
ag7
ag9
ag7
ag7
ag9
ag9
ag9
ag15
ag9
ag9
ag9
ag9
ag9
ag7
ag7
ag7
ag9
ag7
ag9
ag9
ag7
ag7
ag7
ag7
ag7
ag7
ag9
ag7
ag9
ag9
ag9
ag7
ag9
ag9
ag7
ag7
ag7
ag9
ag7
ag7
ag7
ag9
ag9
ag7
ag5
ag5
ag5
ag5
ag5
ag5
ag5
ag5
ag7
ag5
ag7
ag7
ag7
ag5
ag5
ag9
ag5
ag5
ag5
ag5
ag9
ag15
ag9
ag7
ag9
ag5
ag7
ag7
ag7
ag7
ag5
ag5
ag5
ag5
ag5
ag5
ag5
ag5
ag5
ag5
ag5
aa(lp32
g5
ag5
ag5
ag5
ag5
ag5
ag5
ag5
ag5
ag5
ag5
ag5
ag5
ag7
ag7
ag9
ag5
ag5
ag5
ag5
ag5
ag5
ag5
ag5
ag9
ag9
ag7
ag7
ag9
ag9
ag9
ag9
ag5
ag5
ag9
ag9
ag7
ag7
ag7
ag7
ag7
ag9
ag5
ag7
ag7
ag7
ag5
ag7
ag7
ag7
ag5
ag5
ag7
ag7
ag9
ag7
ag7
ag5
ag7
ag5
ag5
ag5
ag7
ag9
ag9
ag9
ag5
ag5
ag7
ag9
ag9
ag7
ag9
ag9
ag7
ag9
ag9
ag7
ag5
ag7
ag9
ag7
ag7
ag9
ag7
ag7
ag7
ag7
ag7
ag7
ag7
ag7
ag9
ag9
ag9
ag7
ag9
ag9
ag9
ag7
ag7
ag9
ag7
ag7
ag5
ag5
ag7
ag9
ag7
ag5
ag5
ag5
ag5
ag5
ag5
ag5
ag5
ag7
ag7
ag7
ag7
ag5
ag7
ag5
ag7
ag7
ag9
ag5
ag9
ag7
ag9
ag7
ag9
ag7
ag9
ag9
ag9
ag7
ag5
ag5
ag5
ag5
ag5
ag5
ag5
ag5
ag5
ag5
ag5
ag5
aa(lp33
g5
ag5
ag5
ag5
ag5
ag5
ag5
ag5
ag5
ag7
ag5
ag5
ag5
ag7
ag5
ag9
ag5
ag5
ag5
ag5
ag5
ag5
ag5
ag7
ag9
ag7
ag7
ag7
ag7
ag7
ag9
ag7
ag5
ag5
ag9
ag9
ag5
ag7
ag7
ag7
ag5
ag5
ag5
ag5
ag7
ag7
ag7
ag5
ag7
ag7
ag5
ag7
ag7
ag9
ag5
ag7
ag7
ag7
ag7
ag7
ag5
ag7
ag9
ag7
ag9
ag9
ag5
ag5
ag7
ag9
ag7
ag9
ag7
ag9
ag7
ag7
ag7
ag7
ag7
ag9
ag7
ag7
ag7
ag7
ag7
ag7
ag7
ag7
ag7
ag7
ag7
ag7
ag9
ag9
ag9
ag9
ag7
ag7
ag9
ag9
ag9
ag5
ag7
ag7
ag9
ag9
ag7
ag7
ag5
ag5
ag5
ag5
ag5
ag5
ag5
ag5
ag7
ag7
ag7
ag9
ag7
ag7
ag7
ag7
ag7
ag9
ag7
ag9
ag5
ag7
ag9
ag7
ag7
ag9
ag9
ag7
ag7
ag5
ag5
ag5
ag5
ag5
ag5
ag5
ag5
ag5
ag5
ag5
ag5
ag5
aa(lp34
g5
ag5
ag7
ag5
ag5
ag5
ag5
ag5
ag7
ag7
ag7
ag5
ag5
ag5
ag5
ag9
ag7
ag5
ag7
ag7
ag5
ag5
ag5
ag5
ag15
ag7
ag5
ag7
ag5
ag7
ag7
ag9
ag7
ag9
ag5
ag5
ag5
ag7
ag7
ag5
ag7
ag5
ag5
ag7
ag7
ag7
ag7
ag7
ag7
ag7
ag7
ag5
ag7
ag5
ag9
ag7
ag7
ag5
ag7
ag7
ag7
ag9
ag9
ag7
ag9
ag7
ag7
ag7
ag7
ag7
ag9
ag7
ag9
ag9
ag7
ag7
ag7
ag7
ag7
ag7
ag9
ag7
ag7
ag7
ag7
ag7
ag7
ag7
ag7
ag7
ag7
ag7
ag7
ag7
ag9
ag7
ag7
ag7
ag9
ag9
ag5
ag9
ag9
ag9
ag7
ag9
ag9
ag5
ag5
ag5
ag5
ag5
ag5
ag5
ag5
ag5
ag7
ag7
ag7
ag5
ag7
ag7
ag5
ag7
ag9
ag7
ag7
ag7
ag9
ag9
ag7
ag7
ag7
ag7
ag5
ag7
ag7
ag5
ag5
ag5
ag5
ag5
ag5
ag5
ag5
ag5
ag5
ag5
ag5
ag5
aa(lp35
g5
ag7
ag7
ag7
ag5
ag5
ag5
ag5
ag9
ag5
ag7
ag7
ag5
ag7
ag5
ag7
ag9
ag7
ag5
ag7
ag5
ag5
ag5
ag7
ag9
ag5
ag5
ag5
ag5
ag5
ag9
ag9
ag9
ag5
ag5
ag5
ag7
ag15
ag5
ag5
ag5
ag7
ag7
ag7
ag7
ag7
ag7
ag7
ag7
ag7
ag7
ag7
ag5
ag5
ag9
ag9
ag7
ag7
ag9
ag7
ag9
ag9
ag9
ag9
ag9
ag9
ag7
ag7
ag7
ag9
ag9
ag7
ag7
ag9
ag7
ag7
ag7
ag7
ag7
ag7
ag9
ag7
ag7
ag7
ag7
ag7
ag7
ag7
ag7
ag7
ag7
ag7
ag7
ag7
ag9
ag7
ag7
ag7
ag9
ag7
ag9
ag9
ag7
ag7
ag5
ag7
ag5
ag5
ag5
ag5
ag5
ag5
ag5
ag5
ag5
ag5
ag7
ag5
ag5
ag5
ag5
ag7
ag7
ag9
ag9
ag9
ag9
ag7
ag7
ag5
ag7
ag7
ag7
ag7
ag5
ag7
ag5
ag5
ag5
ag5
ag5
ag5
ag5
ag5
ag5
ag5
ag5
ag5
ag5
ag5
aa(lp36
g5
ag9
ag5
ag9
ag7
ag7
ag5
ag5
ag9
ag9
ag7
ag5
ag7
ag5
ag7
ag5
ag7
ag9
ag7
ag7
ag7
ag5
ag5
ag5
ag9
ag5
ag5
ag5
ag5
ag5
ag9
ag15
ag9
ag7
ag7
ag7
ag5
ag5
ag5
ag5
ag5
ag7
ag5
ag15
ag5
ag7
ag7
ag7
ag7
ag7
ag7
ag7
ag7
ag7
ag9
ag7
ag7
ag7
ag9
ag9
ag9
ag7
ag9
ag9
ag9
ag9
ag7
ag7
ag7
ag9
ag9
ag9
ag9
ag9
ag9
ag7
ag7
ag7
ag7
ag7
ag7
ag9
ag7
ag7
ag7
ag7
ag7
ag7
ag7
ag7
ag7
ag7
ag7
ag7
ag7
ag9
ag9
ag7
ag7
ag9
ag7
ag9
ag9
ag9
ag9
ag7
ag5
ag5
ag5
ag5
ag5
ag5
ag5
ag5
ag5
ag5
ag5
ag5
ag5
ag5
ag5
ag7
ag7
ag9
ag7
ag7
ag5
ag7
ag5
ag5
ag7
ag5
ag5
ag5
ag7
ag7
ag5
ag5
ag5
ag5
ag5
ag5
ag5
ag5
ag5
ag5
ag5
ag5
ag5
ag5
aa(lp37
g5
ag9
ag9
ag7
ag9
ag7
ag7
ag7
ag9
ag7
ag9
ag7
ag5
ag7
ag7
ag7
ag7
ag7
ag9
ag7
ag7
ag7
ag9
ag5
ag5
ag5
ag5
ag5
ag7
ag9
ag9
ag9
ag15
ag7
ag7
ag7
ag7
ag5
ag5
ag5
ag5
ag5
ag5
ag5
ag5
ag5
ag7
ag5
ag7
ag7
ag7
ag5
ag7
ag7
ag5
ag7
ag7
ag7
ag7
ag9
ag7
ag9
ag9
ag5
ag9
ag9
ag5
ag7
ag7
ag5
ag5
ag7
ag7
ag7
ag7
ag9
ag7
ag7
ag7
ag7
ag7
ag7
ag9
ag9
ag7
ag9
ag9
ag7
ag7
ag7
ag7
ag7
ag7
ag7
ag7
ag7
ag7
ag7
ag7
ag9
ag7
ag9
ag7
ag7
ag7
ag7
ag5
ag7
ag5
ag5
ag5
ag5
ag5
ag5
ag5
ag5
ag5
ag5
ag5
ag5
ag7
ag7
ag7
ag7
ag7
ag7
ag5
ag7
ag5
ag5
ag5
ag5
ag5
ag5
ag15
ag5
ag5
ag5
ag5
ag5
ag5
ag5
ag5
ag5
ag5
ag5
ag5
ag5
ag5
ag5
aa(lp38
g5
ag9
ag7
ag7
ag7
ag9
ag7
ag7
ag7
ag7
ag5
ag9
ag5
ag9
ag5
ag5
ag7
ag7
ag7
ag7
ag7
ag5
ag5
ag7
ag7
ag5
ag5
ag7
ag7
ag9
ag9
ag9
ag7
ag9
ag7
ag5
ag5
ag7
ag5
ag7
ag7
ag5
ag7
ag7
ag5
ag5
ag5
ag7
ag7
ag7
ag5
ag5
ag5
ag5
ag7
ag7
ag7
ag5
ag7
ag9
ag9
ag9
ag7
ag5
ag7
ag7
ag9
ag15
ag5
ag7
ag7
ag7
ag7
ag7
ag9
ag7
ag9
ag9
ag7
ag7
ag7
ag7
ag7
ag9
ag9
ag7
ag7
ag9
ag7
ag7
ag7
ag7
ag9
ag7
ag7
ag7
ag7
ag7
ag9
ag9
ag9
ag9
ag7
ag7
ag7
ag7
ag7
ag7
ag7
ag7
ag5
ag5
ag5
ag5
ag5
ag5
ag5
ag5
ag7
ag7
ag5
ag7
ag7
ag7
ag7
ag7
ag7
ag9
ag9
ag9
ag5
ag5
ag5
ag5
ag5
ag9
ag5
ag5
ag5
ag5
ag5
ag5
ag5
ag5
ag5
ag5
ag5
ag5
ag5
ag5
aa(lp39
g5
ag9
ag9
ag7
ag5
ag7
ag9
ag7
ag9
ag9
ag7
ag5
ag15
ag5
ag9
ag9
ag5
ag5
ag5
ag7
ag5
ag5
ag5
ag7
ag7
ag5
ag5
ag7
ag7
ag7
ag9
ag7
ag9
ag7
ag9
ag9
ag9
ag7
ag7
ag9
ag9
ag7
ag7
ag7
ag7
ag7
ag7
ag7
ag7
ag7
ag5
ag5
ag5
ag5
ag5
ag7
ag5
ag5
ag5
ag9
ag9
ag9
ag7
ag7
ag5
ag5
ag7
ag5
ag5
ag7
ag7
ag7
ag9
ag7
ag7
ag9
ag7
ag9
ag9
ag9
ag9
ag9
ag9
ag9
ag7
ag7
ag7
ag7
ag9
ag9
ag7
ag9
ag7
ag7
ag7
ag7
ag7
ag7
ag7
ag7
ag9
ag7
ag7
ag7
ag7
ag7
ag7
ag7
ag7
ag7
ag5
ag9
ag5
ag5
ag9
ag15
ag9
ag9
ag7
ag7
ag7
ag7
ag7
ag7
ag7
ag7
ag9
ag7
ag9
ag7
ag5
ag5
ag5
ag5
ag9
ag5
ag5
ag5
ag5
ag5
ag5
ag5
ag5
ag5
ag5
ag5
ag5
ag5
ag5
ag5
aa(lp40
g5
ag7
ag5
ag5
ag7
ag7
ag7
ag9
ag7
ag7
ag7
ag5
ag7
ag5
ag5
ag5
ag9
ag5
ag5
ag5
ag5
ag5
ag5
ag7
ag9
ag7
ag7
ag7
ag7
ag7
ag9
ag7
ag7
ag9
ag7
ag9
ag9
ag9
ag5
ag9
ag7
ag7
ag7
ag7
ag7
ag7
ag7
ag7
ag7
ag5
ag5
ag5
ag5
ag5
ag7
ag7
ag5
ag5
ag5
ag9
ag5
ag5
ag5
ag5
ag5
ag5
ag7
ag7
ag7
ag5
ag7
ag7
ag7
ag7
ag7
ag7
ag9
ag5
ag7
ag9
ag7
ag7
ag9
ag9
ag9
ag7
ag7
ag7
ag9
ag9
ag9
ag7
ag9
ag7
ag7
ag7
ag7
ag7
ag7
ag7
ag7
ag7
ag7
ag7
ag7
ag7
ag7
ag7
ag7
ag9
ag9
ag9
ag5
ag9
ag7
ag5
ag7
ag5
ag9
ag5
ag7
ag7
ag7
ag7
ag7
ag9
ag7
ag5
ag15
ag5
ag5
ag5
ag5
ag5
ag5
ag5
ag5
ag5
ag5
ag5
ag5
ag5
ag5
ag5
ag5
ag5
ag5
ag5
ag5
ag5
aa(lp41
g5
ag7
ag7
ag7
ag7
ag7
ag9
ag9
ag9
ag7
ag5
ag5
ag5
ag5
ag9
ag9
ag9
ag9
ag5
ag7
ag9
ag7
ag9
ag9
ag7
ag9
ag7
ag5
ag5
ag5
ag5
ag7
ag7
ag9
ag9
ag9
ag9
ag5
ag9
ag7
ag7
ag7
ag7
ag7
ag7
ag7
ag7
ag15
ag5
ag5
ag5
ag5
ag5
ag5
ag7
ag7
ag5
ag5
ag5
ag5
ag5
ag5
ag5
ag5
ag5
ag5
ag7
ag7
ag7
ag9
ag9
ag9
ag9
ag9
ag9
ag9
ag9
ag7
ag7
ag7
ag7
ag7
ag7
ag9
ag15
ag7
ag7
ag7
ag7
ag7
ag9
ag9
ag9
ag7
ag5
ag7
ag7
ag7
ag7
ag7
ag7
ag7
ag7
ag7
ag9
ag7
ag9
ag9
ag9
ag9
ag9
ag5
ag7
ag7
ag5
ag7
ag5
ag5
ag5
ag5
ag7
ag5
ag5
ag7
ag9
ag7
ag7
ag5
ag7
ag7
ag5
ag5
ag5
ag5
ag5
ag5
ag5
ag5
ag5
ag5
ag5
ag5
ag5
ag5
ag5
ag5
ag5
ag5
ag5
ag5
aa(lp42
g5
ag7
ag7
ag7
ag7
ag9
ag5
ag7
ag9
ag7
ag7
ag7
ag7
ag7
ag5
ag5
ag9
ag5
ag9
ag9
ag5
ag9
ag7
ag5
ag9
ag7
ag5
ag5
ag5
ag5
ag5
ag5
ag7
ag5
ag5
ag7
ag7
ag7
ag9
ag9
ag7
ag7
ag7
ag7
ag5
ag5
ag5
ag5
ag5
ag5
ag5
ag5
ag5
ag5
ag7
ag5
ag5
ag5
ag5
ag5
ag5
ag5
ag5
ag5
ag5
ag5
ag7
ag7
ag9
ag9
ag7
ag9
ag7
ag7
ag7
ag7
ag9
ag7
ag7
ag7
ag7
ag7
ag7
ag7
ag7
ag7
ag7
ag7
ag7
ag7
ag7
ag7
ag9
ag9
ag9
ag7
ag7
ag7
ag7
ag7
ag7
ag9
ag7
ag9
ag7
ag7
ag7
ag7
ag9
ag9
ag15
ag7
ag5
ag9
ag7
ag7
ag7
ag7
ag7
ag7
ag5
ag5
ag7
ag7
ag9
ag7
ag7
ag5
ag5
ag7
ag5
ag5
ag5
ag5
ag5
ag5
ag5
ag5
ag5
ag5
ag5
ag5
ag5
ag5
ag5
ag5
ag5
ag5
ag5
ag5
aa(lp43
g5
ag7
ag7
ag9
ag9
ag7
ag7
ag7
ag7
ag7
ag7
ag7
ag7
ag7
ag5
ag5
ag5
ag7
ag9
ag9
ag7
ag5
ag5
ag5
ag7
ag5
ag5
ag5
ag5
ag5
ag5
ag5
ag5
ag5
ag5
ag5
ag7
ag9
ag9
ag5
ag9
ag7
ag7
ag7
ag5
ag5
ag5
ag5
ag5
ag5
ag5
ag5
ag5
ag5
ag5
ag9
ag5
ag5
ag5
ag5
ag5
ag5
ag5
ag7
ag7
ag7
ag9
ag9
ag9
ag9
ag9
ag9
ag9
ag9
ag7
ag7
ag9
ag9
ag5
ag7
ag7
ag7
ag7
ag7
ag7
ag9
ag7
ag7
ag7
ag7
ag7
ag7
ag7
ag7
ag7
ag9
ag7
ag9
ag7
ag7
ag7
ag9
ag9
ag9
ag7
ag7
ag7
ag9
ag7
ag7
ag7
ag9
ag9
ag5
ag7
ag7
ag7
ag7
ag7
ag7
ag7
ag7
ag7
ag7
ag9
ag7
ag5
ag5
ag5
ag7
ag5
ag5
ag5
ag5
ag5
ag5
ag5
ag5
ag5
ag5
ag5
ag5
ag5
ag5
ag5
ag5
ag5
ag5
ag5
ag5
aa(lp44
g5
ag7
ag7
ag7
ag7
ag7
ag7
ag7
ag7
ag7
ag7
ag7
ag7
ag5
ag5
ag5
ag5
ag9
ag9
ag5
ag7
ag5
ag5
ag7
ag7
ag5
ag5
ag5
ag5
ag5
ag5
ag5
ag5
ag5
ag5
ag5
ag5
ag7
ag5
ag9
ag9
ag7
ag7
ag5
ag5
ag5
ag5
ag5
ag5
ag5
ag5
ag5
ag9
ag9
ag9
ag9
ag9
ag5
ag5
ag5
ag5
ag5
ag5
ag7
ag7
ag7
ag7
ag7
ag9
ag7
ag9
ag9
ag7
ag7
ag7
ag7
ag9
ag7
ag7
ag7
ag7
ag7
ag5
ag9
ag9
ag9
ag9
ag9
ag9
ag7
ag7
ag7
ag9
ag15
ag5
ag7
ag9
ag7
ag7
ag7
ag7
ag9
ag7
ag9
ag7
ag7
ag7
ag9
ag7
ag9
ag9
ag5
ag5
ag5
ag7
ag7
ag7
ag7
ag9
ag7
ag7
ag7
ag7
ag9
ag7
ag7
ag5
ag7
ag7
ag7
ag5
ag5
ag5
ag5
ag5
ag5
ag5
ag5
ag5
ag5
ag5
ag5
ag5
ag5
ag5
ag5
ag5
ag5
ag5
ag5
aa(lp45
g5
ag7
ag7
ag7
ag7
ag7
ag7
ag7
ag9
ag7
ag7
ag7
ag7
ag9
ag5
ag5
ag7
ag9
ag7
ag7
ag5
ag5
ag7
ag5
ag5
ag5
ag5
ag5
ag5
ag5
ag5
ag5
ag5
ag5
ag5
ag5
ag5
ag7
ag7
ag7
ag9
ag15
ag5
ag5
ag5
ag5
ag5
ag5
ag5
ag5
ag5
ag5
ag7
ag7
ag9
ag7
ag7
ag9
ag5
ag5
ag9
ag5
ag5
ag7
ag7
ag7
ag7
ag7
ag7
ag9
ag7
ag9
ag9
ag7
ag7
ag9
ag7
ag7
ag7
ag7
ag7
ag7
ag7
ag7
ag9
ag9
ag9
ag9
ag9
ag7
ag9
ag9
ag7
ag7
ag7
ag7
ag7
ag7
ag7
ag7
ag7
ag7
ag7
ag9
ag7
ag7
ag7
ag9
ag7
ag9
ag7
ag9
ag5
ag5
ag5
ag9
ag7
ag9
ag9
ag9
ag7
ag9
ag9
ag5
ag7
ag7
ag7
ag5
ag5
ag5
ag5
ag5
ag5
ag5
ag5
ag5
ag5
ag5
ag5
ag5
ag5
ag5
ag5
ag5
ag5
ag5
ag5
ag5
ag5
ag5
aa(lp46
g5
ag15
ag7
ag7
ag7
ag7
ag9
ag9
ag7
ag7
ag9
ag9
ag9
ag7
ag9
ag9
ag9
ag7
ag7
ag7
ag7
ag5
ag7
ag5
ag5
ag5
ag5
ag5
ag5
ag5
ag5
ag5
ag5
ag5
ag5
ag5
ag5
ag7
ag15
ag7
ag7
ag7
ag7
ag5
ag5
ag5
ag5
ag5
ag5
ag5
ag7
ag7
ag7
ag7
ag7
ag9
ag9
ag9
ag5
ag9
ag5
ag9
ag5
ag5
ag15
ag9
ag7
ag7
ag9
ag7
ag7
ag7
ag7
ag9
ag9
ag7
ag7
ag7
ag7
ag7
ag7
ag7
ag7
ag15
ag9
ag9
ag9
ag7
ag7
ag9
ag7
ag9
ag7
ag7
ag7
ag7
ag7
ag7
ag7
ag7
ag7
ag7
ag9
ag9
ag9
ag9
ag9
ag7
ag5
ag7
ag9
ag9
ag7
ag9
ag7
ag7
ag9
ag7
ag9
ag9
ag9
ag9
ag7
ag7
ag5
ag5
ag7
ag7
ag5
ag5
ag5
ag5
ag5
ag5
ag5
ag5
ag5
ag5
ag5
ag5
ag5
ag5
ag5
ag5
ag5
ag5
ag5
ag5
ag5
ag5
aa(lp47
g5
ag5
ag7
ag9
ag9
ag7
ag9
ag7
ag9
ag9
ag7
ag9
ag9
ag9
ag9
ag9
ag5
ag7
ag7
ag7
ag7
ag5
ag5
ag5
ag5
ag5
ag5
ag5
ag5
ag5
ag5
ag5
ag5
ag5
ag5
ag5
ag5
ag5
ag7
ag7
ag7
ag5
ag5
ag5
ag5
ag5
ag5
ag5
ag5
ag5
ag7
ag7
ag7
ag7
ag7
ag9
ag7
ag9
ag5
ag9
ag5
ag5
ag5
ag5
ag7
ag9
ag7
ag9
ag7
ag7
ag7
ag7
ag7
ag7
ag7
ag7
ag7
ag7
ag7
ag7
ag9
ag7
ag9
ag7
ag7
ag7
ag9
ag9
ag7
ag7
ag7
ag9
ag9
ag7
ag7
ag7
ag9
ag9
ag9
ag7
ag7
ag9
ag7
ag9
ag7
ag7
ag7
ag7
ag7
ag7
ag7
ag9
ag7
ag9
ag7
ag9
ag9
ag7
ag7
ag9
ag5
ag9
ag7
ag7
ag7
ag5
ag5
ag15
ag5
ag5
ag5
ag5
ag5
ag5
ag5
ag5
ag5
ag5
ag5
ag5
ag5
ag5
ag5
ag5
ag5
ag5
ag5
ag5
ag5
ag5
aa(lp48
g5
ag5
ag7
ag9
ag7
ag9
ag9
ag9
ag7
ag7
ag9
ag7
ag9
ag7
ag9
ag9
ag7
ag9
ag7
ag9
ag7
ag5
ag5
ag5
ag5
ag5
ag5
ag5
ag5
ag5
ag5
ag5
ag5
ag7
ag5
ag5
ag5
ag5
ag9
ag9
ag5
ag5
ag5
ag5
ag5
ag5
ag5
ag5
ag5
ag7
ag7
ag7
ag7
ag7
ag5
ag5
ag7
ag9
ag9
ag7
ag9
ag5
ag7
ag7
ag7
ag9
ag9
ag9
ag7
ag7
ag9
ag7
ag7
ag7
ag7
ag7
ag7
ag7
ag7
ag9
ag7
ag9
ag7
ag7
ag7
ag7
ag9
ag7
ag9
ag9
ag9
ag9
ag9
ag7
ag9
ag7
ag7
ag7
ag9
ag9
ag9
ag7
ag7
ag9
ag7
ag7
ag7
ag7
ag7
ag7
ag7
ag9
ag7
ag9
ag9
ag9
ag7
ag7
ag5
ag7
ag7
ag9
ag5
ag7
ag7
ag5
ag5
ag5
ag5
ag5
ag5
ag5
ag5
ag5
ag5
ag5
ag5
ag5
ag5
ag5
ag5
ag5
ag5
ag5
ag5
ag5
ag5
ag5
ag5
ag5
aa(lp49
g5
ag9
ag9
ag9
ag9
ag9
ag7
ag7
ag9
ag9
ag7
ag7
ag9
ag5
ag5
ag5
ag9
ag9
ag7
ag9
ag5
ag7
ag7
ag7
ag5
ag5
ag5
ag5
ag5
ag5
ag5
ag7
ag7
ag5
ag5
ag5
ag5
ag9
ag7
ag5
ag5
ag5
ag5
ag5
ag5
ag5
ag5
ag5
ag5
ag5
ag5
ag7
ag7
ag7
ag7
ag5
ag7
ag9
ag7
ag7
ag7
ag9
ag7
ag7
ag7
ag9
ag9
ag9
ag7
ag7
ag9
ag7
ag7
ag7
ag7
ag7
ag7
ag7
ag9
ag9
ag7
ag7
ag7
ag7
ag7
ag9
ag9
ag7
ag9
ag7
ag7
ag9
ag15
ag7
ag9
ag7
ag7
ag9
ag9
ag9
ag9
ag7
ag7
ag9
ag7
ag7
ag7
ag7
ag7
ag7
ag9
ag7
ag7
ag7
ag9
ag7
ag7
ag7
ag7
ag7
ag5
ag5
ag5
ag5
ag7
ag5
ag5
ag5
ag5
ag5
ag5
ag5
ag5
ag5
ag5
ag5
ag5
ag5
ag5
ag5
ag5
ag5
ag5
ag5
ag5
ag5
ag5
ag5
ag5
ag5
aa(lp50
g5
ag5
ag5
ag7
ag5
ag5
ag5
ag5
ag9
ag9
ag9
ag9
ag5
ag5
ag5
ag5
ag5
ag9
ag5
ag5
ag9
ag7
ag7
ag7
ag7
ag5
ag5
ag5
ag5
ag5
ag5
ag5
ag7
ag5
ag5
ag5
ag5
ag9
ag5
ag5
ag5
ag5
ag5
ag5
ag5
ag5
ag5
ag5
ag5
ag5
ag5
ag7
ag7
ag7
ag7
ag5
ag9
ag7
ag7
ag7
ag9
ag7
ag5
ag7
ag7
ag7
ag15
ag7
ag9
ag7
ag9
ag7
ag7
ag7
ag7
ag7
ag7
ag7
ag7
ag9
ag7
ag7
ag15
ag7
ag7
ag9
ag9
ag7
ag9
ag9
ag9
ag9
ag7
ag9
ag7
ag7
ag7
ag7
ag7
ag7
ag9
ag9
ag9
ag9
ag7
ag7
ag5
ag7
ag7
ag7
ag9
ag5
ag5
ag5
ag7
ag7
ag7
ag7
ag7
ag7
ag7
ag5
ag9
ag7
ag5
ag5
ag5
ag5
ag5
ag5
ag5
ag5
ag5
ag5
ag5
ag5
ag5
ag5
ag5
ag5
ag5
ag5
ag5
ag5
ag5
ag5
ag5
ag5
ag5
ag5
aa(lp51
g5
ag5
ag5
ag5
ag5
ag5
ag5
ag9
ag9
ag9
ag9
ag5
ag5
ag7
ag5
ag5
ag5
ag5
ag9
ag9
ag5
ag9
ag7
ag7
ag7
ag7
ag5
ag5
ag5
ag5
ag5
ag7
ag7
ag5
ag5
ag5
ag9
ag7
ag7
ag5
ag5
ag5
ag5
ag5
ag5
ag5
ag5
ag5
ag5
ag5
ag5
ag7
ag7
ag7
ag7
ag7
ag7
ag15
ag7
ag9
ag7
ag7
ag7
ag7
ag7
ag7
ag7
ag9
ag7
ag9
ag9
ag7
ag9
ag7
ag7
ag7
ag7
ag7
ag7
ag9
ag7
ag7
ag7
ag7
ag7
ag7
ag7
ag7
ag7
ag7
ag9
ag7
ag9
ag9
ag7
ag7
ag7
ag7
ag7
ag7
ag7
ag9
ag5
ag7
ag7
ag7
ag7
ag7
ag9
ag15
ag9
ag5
ag5
ag7
ag7
ag7
ag7
ag7
ag5
ag7
ag7
ag9
ag9
ag9
ag5
ag5
ag5
ag5
ag5
ag5
ag5
ag5
ag5
ag5
ag5
ag5
ag5
ag5
ag5
ag5
ag5
ag5
ag5
ag5
ag5
ag5
ag5
ag5
ag5
ag5
aa(lp52
g5
ag5
ag5
ag5
ag5
ag5
ag5
ag7
ag7
ag9
ag9
ag5
ag9
ag9
ag7
ag5
ag5
ag5
ag9
ag5
ag5
ag7
ag9
ag7
ag7
ag5
ag5
ag5
ag5
ag5
ag5
ag5
ag5
ag7
ag5
ag9
ag7
ag7
ag5
ag5
ag5
ag5
ag5
ag5
ag5
ag5
ag5
ag5
ag5
ag5
ag5
ag7
ag7
ag7
ag7
ag7
ag9
ag7
ag7
ag7
ag7
ag7
ag7
ag7
ag7
ag7
ag7
ag7
ag7
ag7
ag9
ag9
ag9
ag7
ag7
ag7
ag7
ag7
ag7
ag9
ag7
ag7
ag7
ag7
ag7
ag7
ag7
ag7
ag7
ag7
ag7
ag9
ag9
ag7
ag7
ag7
ag7
ag9
ag7
ag7
ag9
ag9
ag9
ag7
ag7
ag7
ag5
ag7
ag9
ag9
ag7
ag7
ag7
ag5
ag7
ag7
ag7
ag15
ag5
ag5
ag5
ag9
ag9
ag7
ag7
ag7
ag7
ag5
ag5
ag5
ag5
ag5
ag5
ag5
ag5
ag5
ag5
ag5
ag5
ag5
ag5
ag5
ag5
ag5
ag5
ag5
ag5
ag5
ag5
ag5
aa(lp53
g5
ag5
ag5
ag5
ag5
ag5
ag5
ag7
ag7
ag9
ag9
ag9
ag9
ag9
ag7
ag5
ag5
ag5
ag7
ag9
ag7
ag9
ag7
ag9
ag5
ag7
ag7
ag5
ag5
ag5
ag5
ag5
ag5
ag7
ag9
ag7
ag7
ag5
ag5
ag5
ag5
ag5
ag5
ag5
ag5
ag5
ag5
ag5
ag5
ag5
ag5
ag5
ag7
ag7
ag7
ag9
ag7
ag7
ag7
ag7
ag7
ag5
ag15
ag7
ag7
ag7
ag9
ag15
ag7
ag7
ag9
ag9
ag9
ag7
ag7
ag7
ag7
ag7
ag7
ag9
ag7
ag7
ag7
ag7
ag7
ag7
ag9
ag7
ag7
ag7
ag7
ag9
ag9
ag7
ag7
ag7
ag7
ag9
ag7
ag9
ag7
ag9
ag5
ag7
ag7
ag7
ag7
ag7
ag7
ag9
ag9
ag15
ag7
ag7
ag7
ag7
ag5
ag5
ag7
ag7
ag7
ag5
ag7
ag7
ag7
ag9
ag9
ag5
ag5
ag5
ag5
ag5
ag5
ag5
ag5
ag5
ag5
ag5
ag5
ag5
ag5
ag5
ag5
ag5
ag5
ag5
ag5
ag5
ag5
ag5
aa(lp54
g5
ag5
ag5
ag5
ag5
ag5
ag5
ag5
ag5
ag7
ag9
ag5
ag5
ag5
ag5
ag5
ag5
ag5
ag7
ag7
ag9
ag7
ag7
ag7
ag7
ag7
ag5
ag5
ag5
ag5
ag5
ag5
ag5
ag9
ag7
ag5
ag9
ag7
ag5
ag5
ag5
ag5
ag5
ag5
ag5
ag5
ag5
ag5
ag5
ag5
ag5
ag7
ag5
ag7
ag9
ag7
ag7
ag7
ag7
ag9
ag7
ag7
ag9
ag7
ag7
ag7
ag9
ag7
ag7
ag7
ag7
ag7
ag9
ag7
ag7
ag7
ag7
ag7
ag7
ag9
ag7
ag7
ag7
ag7
ag7
ag9
ag7
ag7
ag7
ag7
ag7
ag9
ag9
ag9
ag7
ag7
ag7
ag7
ag9
ag7
ag7
ag5
ag7
ag7
ag7
ag7
ag7
ag9
ag9
ag9
ag7
ag9
ag7
ag7
ag7
ag7
ag5
ag5
ag5
ag7
ag7
ag5
ag7
ag7
ag7
ag9
ag9
ag9
ag5
ag5
ag5
ag5
ag5
ag5
ag5
ag5
ag5
ag5
ag5
ag5
ag5
ag5
ag5
ag5
ag5
ag5
ag5
ag5
ag5
ag5
aa(lp55
g5
ag5
ag5
ag5
ag5
ag5
ag5
ag5
ag7
ag9
ag15
ag5
ag5
ag5
ag5
ag5
ag5
ag5
ag5
ag7
ag7
ag7
ag7
ag7
ag5
ag7
ag5
ag5
ag5
ag5
ag5
ag5
ag5
ag9
ag9
ag7
ag7
ag7
ag5
ag5
ag5
ag5
ag5
ag5
ag5
ag5
ag5
ag5
ag5
ag5
ag7
ag7
ag7
ag7
ag9
ag7
ag7
ag7
ag7
ag9
ag7
ag7
ag15
ag7
ag7
ag7
ag9
ag7
ag7
ag9
ag7
ag7
ag7
ag7
ag7
ag7
ag7
ag7
ag7
ag15
ag7
ag7
ag7
ag7
ag9
ag7
ag7
ag7
ag7
ag7
ag7
ag15
ag9
ag9
ag7
ag7
ag7
ag7
ag7
ag7
ag7
ag7
ag7
ag7
ag7
ag7
ag7
ag7
ag9
ag9
ag9
ag7
ag5
ag5
ag5
ag5
ag5
ag5
ag7
ag5
ag5
ag7
ag7
ag7
ag9
ag5
ag5
ag5
ag5
ag5
ag5
ag5
ag5
ag5
ag5
ag5
ag5
ag5
ag5
ag5
ag5
ag5
ag5
ag5
ag5
ag5
ag5
ag5
ag5
ag5
aa(lp56
g5
ag5
ag5
ag5
ag5
ag5
ag9
ag9
ag9
ag7
ag7
ag5
ag5
ag5
ag5
ag5
ag5
ag5
ag5
ag7
ag7
ag7
ag7
ag5
ag5
ag5
ag7
ag7
ag5
ag5
ag5
ag5
ag5
ag9
ag9
ag7
ag5
ag5
ag5
ag5
ag5
ag5
ag5
ag5
ag5
ag5
ag5
ag5
ag5
ag5
ag7
ag7
ag5
ag7
ag9
ag7
ag7
ag7
ag7
ag7
ag7
ag9
ag7
ag7
ag7
ag7
ag9
ag9
ag7
ag9
ag9
ag7
ag9
ag7
ag7
ag7
ag7
ag7
ag7
ag7
ag7
ag7
ag7
ag9
ag7
ag7
ag7
ag7
ag7
ag7
ag7
ag9
ag7
ag9
ag7
ag15
ag7
ag9
ag9
ag9
ag9
ag7
ag7
ag7
ag7
ag7
ag7
ag7
ag7
ag9
ag7
ag9
ag7
ag5
ag5
ag5
ag7
ag9
ag9
ag5
ag9
ag7
ag7
ag9
ag5
ag7
ag7
ag5
ag5
ag5
ag5
ag7
ag7
ag5
ag5
ag5
ag5
ag5
ag5
ag5
ag5
ag5
ag5
ag5
ag5
ag5
ag5
ag5
ag5
ag5
aa(lp57
g5
ag5
ag5
ag5
ag5
ag5
ag5
ag9
ag7
ag7
ag5
ag7
ag7
ag5
ag5
ag5
ag5
ag5
ag5
ag5
ag5
ag5
ag5
ag5
ag5
ag7
ag7
ag7
ag5
ag5
ag5
ag5
ag5
ag9
ag9
ag9
ag9
ag5
ag5
ag5
ag5
ag5
ag5
ag5
ag5
ag5
ag5
ag5
ag5
ag5
ag5
ag5
ag7
ag5
ag9
ag7
ag9
ag7
ag7
ag7
ag9
ag7
ag7
ag7
ag7
ag7
ag9
ag9
ag9
ag9
ag9
ag9
ag7
ag9
ag7
ag7
ag7
ag7
ag7
ag7
ag7
ag7
ag7
ag9
ag7
ag7
ag7
ag7
ag7
ag7
ag7
ag7
ag7
ag9
ag9
ag7
ag9
ag9
ag9
ag9
ag9
ag7
ag7
ag5
ag7
ag7
ag7
ag7
ag7
ag5
ag5
ag9
ag9
ag9
ag5
ag5
ag7
ag7
ag7
ag9
ag9
ag9
ag9
ag7
ag5
ag5
ag7
ag5
ag5
ag5
ag5
ag7
ag7
ag7
ag5
ag5
ag5
ag5
ag5
ag5
ag5
ag5
ag5
ag5
ag5
ag5
ag5
ag5
ag5
ag5
aa(lp58
g5
ag5
ag5
ag5
ag5
ag5
ag5
ag5
ag5
ag7
ag7
ag7
ag5
ag5
ag7
ag5
ag5
ag7
ag5
ag5
ag5
ag5
ag5
ag5
ag7
ag7
ag7
ag5
ag7
ag7
ag7
ag5
ag5
ag7
ag7
ag7
ag7
ag7
ag5
ag5
ag5
ag5
ag5
ag5
ag5
ag5
ag5
ag5
ag5
ag7
ag7
ag7
ag9
ag7
ag9
ag9
ag7
ag7
ag7
ag9
ag7
ag7
ag7
ag7
ag7
ag9
ag7
ag9
ag9
ag9
ag9
ag7
ag7
ag9
ag9
ag7
ag7
ag7
ag7
ag7
ag7
ag7
ag9
ag9
ag7
ag7
ag7
ag7
ag7
ag7
ag7
ag7
ag7
ag9
ag9
ag9
ag9
ag7
ag7
ag5
ag7
ag5
ag5
ag5
ag7
ag7
ag7
ag7
ag7
ag5
ag5
ag5
ag5
ag5
ag7
ag5
ag7
ag7
ag9
ag9
ag9
ag9
ag7
ag7
ag7
ag7
ag7
ag5
ag7
ag5
ag7
ag7
ag9
ag9
ag5
ag5
ag5
ag5
ag5
ag5
ag5
ag5
ag5
ag5
ag5
ag5
ag5
ag5
ag5
ag5
aa(lp59
g5
ag5
ag5
ag5
ag5
ag5
ag5
ag5
ag7
ag7
ag7
ag7
ag7
ag7
ag7
ag7
ag7
ag7
ag7
ag5
ag5
ag5
ag5
ag5
ag7
ag7
ag7
ag5
ag7
ag7
ag7
ag7
ag7
ag7
ag7
ag7
ag7
ag7
ag7
ag7
ag5
ag5
ag5
ag5
ag5
ag5
ag5
ag5
ag7
ag7
ag7
ag9
ag7
ag9
ag9
ag9
ag7
ag7
ag7
ag9
ag9
ag9
ag9
ag9
ag7
ag9
ag9
ag9
ag9
ag9
ag7
ag7
ag9
ag9
ag7
ag7
ag7
ag7
ag7
ag7
ag7
ag7
ag9
ag9
ag7
ag9
ag7
ag7
ag7
ag9
ag9
ag7
ag7
ag7
ag9
ag9
ag7
ag7
ag7
ag5
ag5
ag5
ag5
ag5
ag7
ag7
ag7
ag7
ag7
ag5
ag7
ag5
ag15
ag7
ag7
ag5
ag5
ag5
ag5
ag9
ag5
ag9
ag7
ag7
ag7
ag7
ag5
ag7
ag7
ag5
ag7
ag7
ag9
ag9
ag5
ag5
ag5
ag5
ag5
ag5
ag5
ag5
ag5
ag5
ag5
ag5
ag5
ag5
ag5
ag5
aa(lp60
g5
ag5
ag5
ag5
ag5
ag5
ag5
ag5
ag7
ag7
ag7
ag7
ag7
ag5
ag5
ag7
ag5
ag7
ag5
ag5
ag5
ag5
ag5
ag5
ag5
ag7
ag5
ag5
ag7
ag7
ag7
ag7
ag7
ag7
ag5
ag5
ag5
ag7
ag7
ag7
ag9
ag5
ag5
ag5
ag5
ag5
ag5
ag5
ag7
ag7
ag9
ag7
ag7
ag9
ag9
ag7
ag7
ag7
ag7
ag7
ag9
ag9
ag7
ag9
ag7
ag9
ag7
ag9
ag9
ag9
ag7
ag7
ag7
ag9
ag7
ag7
ag7
ag7
ag7
ag7
ag7
ag7
ag7
ag9
ag9
ag7
ag7
ag7
ag7
ag9
ag7
ag7
ag7
ag7
ag9
ag9
ag7
ag7
ag7
ag5
ag5
ag9
ag5
ag5
ag7
ag7
ag7
ag7
ag7
ag5
ag7
ag7
ag7
ag7
ag7
ag7
ag5
ag5
ag5
ag5
ag5
ag9
ag9
ag7
ag7
ag7
ag15
ag7
ag7
ag7
ag5
ag7
ag5
ag5
ag9
ag5
ag5
ag5
ag5
ag5
ag5
ag5
ag5
ag5
ag5
ag5
ag5
ag5
ag5
ag5
aa(lp61
g5
ag5
ag5
ag5
ag5
ag5
ag5
ag5
ag5
ag5
ag7
ag7
ag7
ag5
ag5
ag5
ag7
ag5
ag5
ag5
ag5
ag5
ag5
ag5
ag5
ag5
ag5
ag5
ag5
ag7
ag7
ag7
ag7
ag7
ag5
ag7
ag7
ag7
ag5
ag7
ag7
ag9
ag7
ag5
ag15
ag5
ag7
ag9
ag5
ag5
ag5
ag7
ag7
ag9
ag7
ag9
ag7
ag7
ag9
ag9
ag7
ag9
ag9
ag7
ag7
ag9
ag7
ag7
ag9
ag7
ag9
ag7
ag9
ag9
ag9
ag5
ag15
ag7
ag7
ag7
ag7
ag7
ag7
ag9
ag7
ag7
ag7
ag7
ag7
ag9
ag7
ag7
ag7
ag9
ag7
ag7
ag7
ag7
ag5
ag5
ag5
ag5
ag7
ag5
ag5
ag5
ag7
ag7
ag7
ag7
ag7
ag7
ag7
ag7
ag7
ag7
ag5
ag5
ag5
ag5
ag7
ag9
ag9
ag5
ag5
ag7
ag7
ag7
ag7
ag7
ag5
ag7
ag5
ag7
ag5
ag15
ag5
ag5
ag5
ag5
ag5
ag5
ag5
ag5
ag5
ag5
ag5
ag5
ag5
ag5
aa(lp62
g5
ag5
ag5
ag5
ag5
ag5
ag5
ag5
ag5
ag7
ag7
ag7
ag7
ag5
ag5
ag9
ag5
ag5
ag5
ag5
ag5
ag5
ag5
ag5
ag5
ag5
ag7
ag9
ag9
ag7
ag7
ag7
ag7
ag7
ag7
ag5
ag7
ag5
ag7
ag5
ag7
ag7
ag15
ag5
ag7
ag7
ag7
ag9
ag7
ag5
ag7
ag7
ag7
ag7
ag9
ag9
ag9
ag7
ag9
ag7
ag7
ag7
ag7
ag7
ag7
ag7
ag9
ag9
ag7
ag9
ag7
ag7
ag15
ag9
ag9
ag7
ag7
ag7
ag7
ag7
ag7
ag7
ag9
ag9
ag9
ag7
ag7
ag7
ag7
ag9
ag7
ag9
ag9
ag7
ag7
ag7
ag7
ag7
ag5
ag5
ag5
ag7
ag5
ag5
ag5
ag5
ag7
ag7
ag7
ag7
ag5
ag5
ag5
ag7
ag7
ag5
ag5
ag5
ag5
ag5
ag5
ag5
ag5
ag9
ag7
ag7
ag7
ag5
ag5
ag5
ag5
ag7
ag5
ag7
ag7
ag5
ag5
ag5
ag5
ag5
ag5
ag5
ag5
ag5
ag5
ag5
ag5
ag5
ag5
ag5
aa(lp63
g5
ag5
ag5
ag5
ag5
ag5
ag5
ag5
ag5
ag5
ag7
ag7
ag7
ag5
ag7
ag5
ag5
ag5
ag5
ag5
ag5
ag5
ag5
ag5
ag5
ag5
ag7
ag9
ag7
ag7
ag7
ag7
ag7
ag7
ag7
ag7
ag7
ag7
ag5
ag7
ag7
ag5
ag9
ag7
ag9
ag7
ag7
ag9
ag9
ag9
ag9
ag7
ag7
ag5
ag7
ag9
ag9
ag9
ag9
ag7
ag7
ag7
ag7
ag7
ag7
ag7
ag7
ag9
ag9
ag7
ag9
ag7
ag9
ag7
ag9
ag7
ag7
ag7
ag7
ag7
ag7
ag9
ag7
ag7
ag9
ag7
ag7
ag7
ag7
ag15
ag7
ag7
ag7
ag7
ag7
ag7
ag7
ag7
ag7
ag5
ag7
ag7
ag5
ag9
ag5
ag5
ag7
ag7
ag7
ag5
ag5
ag5
ag5
ag7
ag7
ag5
ag5
ag5
ag5
ag5
ag5
ag5
ag9
ag9
ag7
ag7
ag5
ag5
ag5
ag5
ag5
ag7
ag7
ag5
ag5
ag5
ag5
ag5
ag5
ag5
ag5
ag5
ag5
ag7
ag7
ag5
ag5
ag5
ag5
ag5
aa(lp64
g5
ag5
ag5
ag5
ag5
ag5
ag5
ag5
ag5
ag5
ag7
ag7
ag5
ag7
ag7
ag7
ag5
ag5
ag5
ag5
ag5
ag5
ag5
ag5
ag9
ag9
ag9
ag5
ag7
ag7
ag7
ag7
ag5
ag5
ag9
ag5
ag7
ag7
ag7
ag5
ag7
ag5
ag7
ag9
ag7
ag7
ag7
ag7
ag7
ag9
ag7
ag9
ag7
ag7
ag7
ag7
ag7
ag9
ag7
ag9
ag7
ag7
ag7
ag15
ag7
ag7
ag7
ag7
ag7
ag7
ag7
ag9
ag9
ag7
ag9
ag7
ag7
ag7
ag7
ag7
ag7
ag15
ag7
ag7
ag5
ag7
ag7
ag7
ag7
ag5
ag5
ag7
ag7
ag7
ag7
ag7
ag7
ag7
ag5
ag5
ag9
ag7
ag7
ag9
ag5
ag5
ag7
ag7
ag5
ag5
ag5
ag5
ag5
ag5
ag7
ag5
ag5
ag5
ag5
ag5
ag5
ag5
ag9
ag9
ag7
ag5
ag7
ag5
ag5
ag7
ag7
ag7
ag5
ag5
ag5
ag5
ag5
ag5
ag5
ag5
ag5
ag5
ag5
ag7
ag7
ag7
ag5
ag5
ag5
ag5
aa(lp65
g5
ag5
ag5
ag5
ag5
ag5
ag5
ag5
ag5
ag5
ag7
ag7
ag7
ag7
ag5
ag7
ag7
ag7
ag5
ag5
ag5
ag5
ag5
ag5
ag5
ag9
ag7
ag7
ag7
ag9
ag9
ag7
ag7
ag5
ag5
ag9
ag7
ag7
ag7
ag7
ag7
ag7
ag7
ag7
ag7
ag7
ag9
ag7
ag7
ag9
ag9
ag7
ag7
ag7
ag7
ag7
ag7
ag9
ag9
ag7
ag7
ag7
ag7
ag7
ag7
ag7
ag7
ag7
ag7
ag7
ag7
ag7
ag9
ag7
ag9
ag7
ag7
ag7
ag7
ag9
ag7
ag7
ag7
ag5
ag7
ag7
ag7
ag7
ag7
ag5
ag7
ag7
ag7
ag7
ag7
ag7
ag7
ag5
ag5
ag9
ag9
ag9
ag9
ag7
ag7
ag5
ag7
ag7
ag5
ag5
ag5
ag5
ag5
ag5
ag5
ag5
ag5
ag5
ag5
ag5
ag5
ag9
ag9
ag5
ag5
ag7
ag5
ag5
ag5
ag7
ag5
ag5
ag5
ag5
ag5
ag5
ag5
ag5
ag5
ag5
ag5
ag7
ag7
ag5
ag7
ag7
ag7
ag5
ag5
ag5
aa(lp66
g5
ag5
ag5
ag5
ag5
ag5
ag5
ag5
ag5
ag5
ag7
ag5
ag7
ag7
ag7
ag7
ag7
ag5
ag5
ag5
ag5
ag5
ag5
ag5
ag5
ag7
ag7
ag7
ag7
ag7
ag9
ag7
ag7
ag7
ag7
ag9
ag7
ag7
ag9
ag7
ag9
ag9
ag9
ag9
ag9
ag9
ag7
ag9
ag9
ag7
ag7
ag7
ag7
ag7
ag7
ag7
ag7
ag9
ag7
ag7
ag7
ag7
ag7
ag7
ag7
ag7
ag7
ag7
ag9
ag9
ag7
ag7
ag9
ag9
ag9
ag9
ag7
ag7
ag7
ag9
ag7
ag7
ag7
ag7
ag7
ag7
ag7
ag7
ag7
ag9
ag7
ag7
ag7
ag7
ag7
ag7
ag5
ag5
ag5
ag5
ag7
ag9
ag7
ag7
ag7
ag7
ag7
ag5
ag5
ag5
ag5
ag5
ag5
ag5
ag5
ag5
ag5
ag5
ag5
ag5
ag7
ag5
ag9
ag7
ag7
ag7
ag7
ag7
ag7
ag5
ag5
ag5
ag5
ag5
ag5
ag5
ag5
ag5
ag5
ag5
ag9
ag9
ag7
ag7
ag7
ag7
ag5
ag5
ag5
ag5
aa(lp67
g5
ag5
ag5
ag5
ag5
ag5
ag5
ag5
ag5
ag5
ag7
ag7
ag7
ag5
ag5
ag5
ag5
ag5
ag5
ag5
ag5
ag5
ag5
ag5
ag5
ag7
ag15
ag5
ag5
ag9
ag5
ag7
ag7
ag5
ag7
ag5
ag9
ag9
ag7
ag9
ag7
ag9
ag7
ag7
ag9
ag9
ag9
ag9
ag7
ag7
ag7
ag7
ag7
ag7
ag7
ag7
ag7
ag7
ag9
ag7
ag7
ag7
ag7
ag7
ag7
ag7
ag7
ag7
ag7
ag9
ag7
ag7
ag7
ag5
ag9
ag5
ag7
ag7
ag7
ag9
ag9
ag9
ag9
ag9
ag7
ag7
ag7
ag7
ag7
ag9
ag7
ag7
ag7
ag7
ag9
ag7
ag7
ag7
ag7
ag7
ag9
ag9
ag9
ag7
ag5
ag7
ag7
ag5
ag5
ag5
ag5
ag5
ag5
ag5
ag5
ag5
ag5
ag5
ag5
ag5
ag5
ag7
ag5
ag9
ag7
ag7
ag7
ag7
ag7
ag5
ag5
ag5
ag5
ag5
ag7
ag5
ag5
ag5
ag5
ag7
ag9
ag7
ag7
ag5
ag7
ag5
ag5
ag5
ag5
ag5
aa(lp68
g5
ag5
ag5
ag5
ag5
ag5
ag5
ag5
ag5
ag5
ag7
ag5
ag5
ag5
ag5
ag5
ag5
ag5
ag5
ag5
ag5
ag5
ag5
ag5
ag5
ag7
ag5
ag5
ag7
ag9
ag7
ag9
ag5
ag7
ag5
ag7
ag7
ag9
ag9
ag9
ag9
ag9
ag9
ag7
ag9
ag9
ag9
ag7
ag9
ag7
ag7
ag9
ag7
ag7
ag7
ag7
ag7
ag9
ag9
ag9
ag9
ag9
ag7
ag7
ag7
ag7
ag7
ag7
ag7
ag9
ag7
ag7
ag7
ag7
ag7
ag7
ag7
ag7
ag7
ag7
ag15
ag9
ag7
ag7
ag7
ag7
ag7
ag7
ag7
ag7
ag7
ag7
ag7
ag9
ag7
ag9
ag7
ag7
ag7
ag9
ag9
ag9
ag9
ag9
ag5
ag5
ag5
ag5
ag5
ag5
ag5
ag5
ag5
ag5
ag5
ag5
ag5
ag5
ag5
ag5
ag5
ag7
ag5
ag7
ag7
ag7
ag7
ag7
ag7
ag5
ag5
ag5
ag5
ag5
ag5
ag7
ag7
ag7
ag7
ag7
ag5
ag5
ag5
ag5
ag5
ag5
ag5
ag5
ag5
ag5
aa(lp69
g5
ag5
ag5
ag5
ag5
ag5
ag5
ag5
ag5
ag5
ag5
ag5
ag5
ag5
ag5
ag5
ag5
ag5
ag5
ag5
ag5
ag5
ag5
ag5
ag5
ag5
ag5
ag5
ag5
ag9
ag9
ag9
ag9
ag7
ag7
ag7
ag5
ag7
ag9
ag7
ag9
ag9
ag15
ag7
ag7
ag9
ag7
ag9
ag7
ag7
ag7
ag7
ag7
ag7
ag7
ag7
ag9
ag15
ag9
ag7
ag7
ag7
ag7
ag7
ag7
ag7
ag7
ag7
ag7
ag7
ag7
ag7
ag7
ag7
ag7
ag9
ag7
ag7
ag7
ag7
ag7
ag7
ag7
ag7
ag7
ag5
ag7
ag7
ag7
ag5
ag7
ag7
ag7
ag7
ag7
ag7
ag9
ag7
ag7
ag7
ag9
ag7
ag9
ag5
ag5
ag5
ag7
ag5
ag5
ag5
ag5
ag5
ag5
ag5
ag5
ag5
ag5
ag5
ag5
ag5
ag5
ag5
ag7
ag7
ag9
ag7
ag7
ag7
ag5
ag5
ag5
ag5
ag5
ag5
ag5
ag5
ag7
ag7
ag7
ag5
ag5
ag5
ag5
ag5
ag5
ag5
ag5
ag5
ag5
ag5
aa(lp70
g5
ag5
ag5
ag5
ag5
ag5
ag5
ag5
ag5
ag5
ag5
ag5
ag5
ag5
ag5
ag5
ag5
ag5
ag5
ag5
ag5
ag5
ag5
ag5
ag5
ag5
ag5
ag5
ag5
ag9
ag7
ag5
ag5
ag5
ag5
ag5
ag7
ag5
ag7
ag9
ag7
ag9
ag7
ag9
ag7
ag5
ag9
ag9
ag9
ag7
ag15
ag7
ag7
ag5
ag7
ag9
ag7
ag7
ag7
ag7
ag7
ag7
ag7
ag7
ag7
ag7
ag7
ag7
ag5
ag5
ag7
ag7
ag7
ag7
ag7
ag9
ag7
ag7
ag7
ag5
ag7
ag5
ag7
ag7
ag7
ag7
ag5
ag7
ag5
ag7
ag5
ag5
ag7
ag7
ag9
ag7
ag5
ag15
ag7
ag7
ag5
ag9
ag9
ag9
ag5
ag7
ag7
ag7
ag7
ag7
ag5
ag5
ag5
ag9
ag5
ag5
ag5
ag5
ag5
ag5
ag5
ag5
ag5
ag7
ag9
ag7
ag7
ag5
ag5
ag5
ag5
ag5
ag5
ag5
ag7
ag7
ag7
ag7
ag5
ag5
ag5
ag5
ag5
ag5
ag5
ag5
ag5
ag5
ag5
ag5
aa(lp71
g5
ag5
ag5
ag5
ag5
ag5
ag5
ag5
ag5
ag5
ag5
ag5
ag5
ag5
ag5
ag5
ag5
ag5
ag5
ag5
ag5
ag5
ag5
ag5
ag5
ag5
ag5
ag5
ag5
ag5
ag9
ag9
ag5
ag5
ag5
ag5
ag5
ag5
ag9
ag7
ag7
ag7
ag7
ag9
ag7
ag7
ag9
ag7
ag7
ag7
ag7
ag7
ag7
ag7
ag9
ag7
ag7
ag7
ag7
ag7
ag7
ag7
ag7
ag7
ag7
ag7
ag7
ag7
ag5
ag5
ag5
ag5
ag7
ag7
ag9
ag9
ag5
ag7
ag15
ag7
ag7
ag7
ag7
ag5
ag7
ag7
ag7
ag5
ag7
ag5
ag5
ag5
ag5
ag7
ag9
ag7
ag7
ag7
ag7
ag5
ag9
ag9
ag7
ag7
ag9
ag7
ag7
ag7
ag7
ag7
ag5
ag5
ag9
ag7
ag9
ag15
ag5
ag5
ag5
ag5
ag5
ag5
ag5
ag5
ag9
ag7
ag7
ag7
ag5
ag5
ag5
ag5
ag5
ag5
ag5
ag7
ag5
ag5
ag5
ag5
ag5
ag5
ag5
ag5
ag5
ag5
ag5
ag5
ag5
ag5
aa(lp72
g5
ag5
ag5
ag5
ag5
ag5
ag5
ag5
ag5
ag5
ag5
ag5
ag5
ag5
ag5
ag5
ag5
ag5
ag5
ag5
ag5
ag5
ag5
ag5
ag5
ag5
ag5
ag5
ag5
ag5
ag5
ag5
ag5
ag5
ag5
ag5
ag5
ag9
ag7
ag7
ag7
ag7
ag7
ag9
ag7
ag7
ag9
ag7
ag9
ag7
ag9
ag7
ag7
ag7
ag7
ag7
ag7
ag7
ag7
ag7
ag7
ag7
ag7
ag7
ag7
ag7
ag7
ag7
ag15
ag7
ag5
ag5
ag5
ag7
ag7
ag9
ag7
ag7
ag7
ag7
ag7
ag5
ag5
ag5
ag7
ag7
ag7
ag7
ag7
ag5
ag5
ag5
ag7
ag7
ag9
ag5
ag5
ag7
ag7
ag7
ag9
ag5
ag5
ag7
ag9
ag7
ag7
ag7
ag5
ag7
ag5
ag9
ag9
ag7
ag9
ag7
ag5
ag5
ag5
ag5
ag5
ag5
ag5
ag9
ag9
ag5
ag5
ag5
ag5
ag5
ag5
ag5
ag5
ag5
ag5
ag5
ag5
ag5
ag5
ag5
ag5
ag5
ag5
ag5
ag5
ag5
ag5
ag5
ag5
ag5
aa(lp73
g5
ag5
ag5
ag5
ag5
ag5
ag5
ag5
ag5
ag5
ag5
ag5
ag5
ag5
ag5
ag5
ag5
ag5
ag5
ag5
ag5
ag5
ag5
ag5
ag5
ag5
ag5
ag5
ag5
ag5
ag5
ag5
ag5
ag5
ag5
ag5
ag9
ag5
ag9
ag5
ag7
ag7
ag7
ag9
ag7
ag9
ag9
ag7
ag7
ag9
ag7
ag7
ag7
ag7
ag7
ag9
ag7
ag7
ag7
ag9
ag9
ag7
ag9
ag7
ag7
ag7
ag7
ag7
ag7
ag15
ag7
ag5
ag7
ag7
ag7
ag7
ag9
ag7
ag7
ag7
ag7
ag7
ag5
ag9
ag7
ag5
ag7
ag7
ag7
ag7
ag7
ag7
ag7
ag7
ag9
ag5
ag9
ag9
ag9
ag9
ag7
ag5
ag5
ag5
ag7
ag5
ag7
ag7
ag5
ag9
ag7
ag9
ag7
ag9
ag9
ag5
ag5
ag5
ag5
ag5
ag5
ag7
ag7
ag7
ag7
ag9
ag5
ag5
ag5
ag5
ag5
ag5
ag5
ag5
ag5
ag5
ag9
ag9
ag5
ag5
ag5
ag5
ag5
ag5
ag5
ag5
ag5
ag5
ag5
ag5
aa(lp74
g5
ag5
ag5
ag5
ag5
ag5
ag5
ag5
ag5
ag5
ag5
ag5
ag5
ag5
ag5
ag5
ag5
ag5
ag5
ag5
ag5
ag5
ag5
ag5
ag5
ag5
ag5
ag5
ag5
ag5
ag5
ag5
ag5
ag5
ag5
ag5
ag5
ag5
ag15
ag9
ag9
ag9
ag7
ag9
ag7
ag9
ag7
ag7
ag7
ag7
ag7
ag7
ag7
ag7
ag9
ag7
ag7
ag7
ag9
ag9
ag7
ag9
ag7
ag9
ag7
ag7
ag7
ag9
ag7
ag7
ag7
ag7
ag5
ag5
ag7
ag7
ag5
ag9
ag7
ag7
ag7
ag5
ag7
ag9
ag7
ag7
ag7
ag5
ag7
ag7
ag7
ag5
ag5
ag7
ag7
ag9
ag9
ag7
ag7
ag7
ag7
ag7
ag5
ag5
ag5
ag5
ag5
ag7
ag9
ag9
ag9
ag7
ag9
ag7
ag7
ag9
ag5
ag5
ag5
ag5
ag5
ag7
ag5
ag5
ag7
ag7
ag9
ag7
ag9
ag9
ag7
ag7
ag5
ag5
ag5
ag5
ag9
ag7
ag7
ag5
ag5
ag5
ag5
ag5
ag5
ag5
ag5
ag5
ag5
ag5
aa(lp75
g5
ag5
ag5
ag5
ag5
ag5
ag5
ag5
ag5
ag5
ag5
ag5
ag5
ag5
ag5
ag5
ag5
ag5
ag5
ag5
ag5
ag5
ag5
ag5
ag5
ag5
ag5
ag5
ag5
ag5
ag5
ag5
ag5
ag5
ag5
ag5
ag5
ag5
ag9
ag9
ag9
ag9
ag7
ag7
ag7
ag7
ag7
ag7
ag7
ag7
ag7
ag7
ag7
ag9
ag7
ag9
ag9
ag9
ag9
ag7
ag7
ag7
ag7
ag9
ag7
ag7
ag7
ag9
ag9
ag9
ag7
ag7
ag7
ag5
ag7
ag7
ag7
ag7
ag9
ag7
ag5
ag9
ag9
ag5
ag5
ag7
ag5
ag7
ag7
ag5
ag5
ag5
ag5
ag5
ag5
ag5
ag7
ag7
ag7
ag7
ag7
ag5
ag5
ag5
ag5
ag5
ag5
ag9
ag9
ag7
ag9
ag9
ag9
ag7
ag7
ag9
ag5
ag5
ag7
ag5
ag7
ag7
ag5
ag5
ag7
ag7
ag7
ag9
ag9
ag7
ag5
ag7
ag7
ag7
ag5
ag5
ag7
ag7
ag5
ag7
ag5
ag5
ag5
ag5
ag5
ag5
ag5
ag5
ag5
ag5
aa(lp76
g5
ag5
ag5
ag5
ag5
ag5
ag5
ag5
ag5
ag5
ag5
ag5
ag5
ag5
ag5
ag5
ag5
ag5
ag5
ag5
ag5
ag5
ag5
ag5
ag5
ag5
ag5
ag5
ag5
ag5
ag5
ag5
ag5
ag5
ag5
ag5
ag5
ag5
ag7
ag9
ag7
ag7
ag7
ag7
ag7
ag7
ag7
ag7
ag7
ag7
ag7
ag7
ag7
ag7
ag7
ag7
ag7
ag9
ag7
ag7
ag7
ag7
ag7
ag9
ag9
ag7
ag9
ag9
ag9
ag7
ag5
ag7
ag5
ag5
ag5
ag5
ag7
ag7
ag5
ag7
ag9
ag9
ag9
ag5
ag5
ag9
ag5
ag5
ag7
ag5
ag5
ag5
ag5
ag5
ag5
ag7
ag5
ag5
ag7
ag7
ag5
ag5
ag5
ag5
ag5
ag5
ag5
ag5
ag9
ag7
ag9
ag9
ag9
ag5
ag9
ag7
ag7
ag7
ag7
ag9
ag7
ag7
ag7
ag5
ag7
ag9
ag7
ag9
ag9
ag5
ag5
ag5
ag7
ag5
ag5
ag5
ag5
ag7
ag7
ag7
ag7
ag5
ag5
ag5
ag5
ag5
ag5
ag5
ag5
ag5
aa(lp77
g5
ag5
ag5
ag5
ag5
ag5
ag5
ag5
ag5
ag5
ag5
ag5
ag5
ag5
ag5
ag5
ag5
ag5
ag5
ag5
ag5
ag5
ag5
ag5
ag5
ag5
ag5
ag5
ag5
ag5
ag5
ag5
ag5
ag5
ag7
ag9
ag9
ag7
ag9
ag9
ag7
ag7
ag7
ag7
ag7
ag7
ag9
ag9
ag7
ag7
ag7
ag7
ag7
ag7
ag7
ag7
ag7
ag7
ag7
ag15
ag7
ag5
ag7
ag9
ag9
ag9
ag7
ag9
ag5
ag7
ag7
ag7
ag7
ag5
ag5
ag5
ag5
ag5
ag5
ag9
ag9
ag9
ag7
ag7
ag5
ag7
ag5
ag7
ag7
ag5
ag5
ag7
ag5
ag5
ag5
ag5
ag5
ag7
ag7
ag9
ag5
ag5
ag5
ag5
ag7
ag5
ag9
ag7
ag7
ag7
ag7
ag9
ag9
ag9
ag9
ag7
ag7
ag7
ag9
ag9
ag7
ag5
ag5
ag5
ag7
ag5
ag5
ag7
ag9
ag7
ag5
ag7
ag7
ag5
ag5
ag7
ag7
ag5
ag5
ag5
ag5
ag5
ag5
ag5
ag5
ag5
ag5
ag5
ag5
ag5
aa(lp78
g5
ag5
ag5
ag5
ag5
ag5
ag5
ag5
ag5
ag5
ag5
ag5
ag5
ag5
ag5
ag5
ag5
ag5
ag5
ag5
ag5
ag5
ag5
ag5
ag5
ag5
ag5
ag5
ag5
ag5
ag5
ag5
ag5
ag5
ag9
ag5
ag5
ag9
ag7
ag7
ag7
ag7
ag7
ag15
ag7
ag9
ag7
ag9
ag7
ag7
ag7
ag7
ag7
ag9
ag7
ag7
ag15
ag7
ag7
ag7
ag7
ag7
ag7
ag7
ag7
ag7
ag9
ag9
ag7
ag7
ag7
ag7
ag7
ag5
ag5
ag5
ag5
ag5
ag5
ag5
ag9
ag7
ag7
ag5
ag5
ag7
ag7
ag7
ag5
ag5
ag7
ag5
ag7
ag7
ag7
ag5
ag7
ag7
ag7
ag7
ag9
ag5
ag7
ag9
ag15
ag9
ag7
ag7
ag7
ag7
ag5
ag7
ag7
ag7
ag9
ag7
ag7
ag7
ag9
ag9
ag9
ag7
ag5
ag5
ag5
ag5
ag7
ag7
ag7
ag5
ag5
ag5
ag7
ag7
ag5
ag7
ag7
ag7
ag5
ag5
ag5
ag5
ag5
ag5
ag5
ag5
ag5
ag5
ag5
ag5
aa(lp79
g5
ag5
ag5
ag5
ag5
ag5
ag5
ag5
ag5
ag5
ag5
ag5
ag5
ag5
ag5
ag5
ag5
ag5
ag5
ag5
ag5
ag5
ag5
ag5
ag5
ag5
ag5
ag5
ag5
ag5
ag5
ag5
ag5
ag9
ag7
ag5
ag5
ag5
ag5
ag5
ag7
ag7
ag7
ag7
ag9
ag7
ag7
ag9
ag7
ag7
ag7
ag7
ag9
ag9
ag7
ag7
ag7
ag7
ag7
ag7
ag5
ag5
ag9
ag7
ag7
ag9
ag7
ag5
ag7
ag7
ag5
ag7
ag7
ag5
ag5
ag5
ag5
ag5
ag5
ag5
ag15
ag9
ag7
ag7
ag7
ag7
ag9
ag7
ag7
ag7
ag5
ag7
ag7
ag7
ag7
ag7
ag7
ag7
ag9
ag9
ag7
ag7
ag5
ag9
ag9
ag15
ag7
ag7
ag5
ag7
ag7
ag7
ag7
ag7
ag7
ag9
ag9
ag9
ag9
ag9
ag5
ag5
ag5
ag5
ag5
ag5
ag5
ag7
ag7
ag7
ag5
ag5
ag7
ag7
ag7
ag7
ag5
ag5
ag5
ag5
ag5
ag5
ag5
ag5
ag5
ag5
ag5
ag5
ag5
ag5
aa(lp80
g5
ag5
ag5
ag5
ag5
ag5
ag5
ag5
ag5
ag5
ag5
ag5
ag5
ag5
ag5
ag5
ag5
ag5
ag5
ag5
ag5
ag5
ag5
ag5
ag5
ag5
ag5
ag5
ag5
ag7
ag7
ag7
ag9
ag5
ag7
ag5
ag5
ag5
ag5
ag5
ag5
ag7
ag7
ag7
ag7
ag7
ag7
ag9
ag7
ag7
ag7
ag15
ag9
ag5
ag7
ag7
ag7
ag7
ag7
ag5
ag5
ag5
ag5
ag9
ag9
ag7
ag9
ag9
ag5
ag5
ag7
ag7
ag5
ag5
ag5
ag5
ag5
ag5
ag7
ag7
ag7
ag7
ag9
ag5
ag5
ag7
ag9
ag5
ag5
ag5
ag5
ag5
ag7
ag7
ag5
ag7
ag7
ag9
ag9
ag7
ag5
ag5
ag5
ag5
ag7
ag5
ag5
ag7
ag7
ag7
ag5
ag7
ag7
ag5
ag5
ag7
ag7
ag7
ag9
ag9
ag7
ag7
ag5
ag5
ag5
ag5
ag5
ag5
ag5
ag7
ag7
ag9
ag7
ag7
ag7
ag7
ag5
ag9
ag7
ag7
ag5
ag5
ag5
ag5
ag5
ag5
ag5
ag5
ag5
ag5
aa(lp81
g5
ag5
ag5
ag5
ag5
ag5
ag5
ag5
ag5
ag5
ag5
ag5
ag5
ag5
ag5
ag5
ag5
ag5
ag5
ag5
ag5
ag5
ag5
ag5
ag5
ag5
ag5
ag7
ag7
ag7
ag7
ag7
ag9
ag5
ag5
ag5
ag5
ag5
ag5
ag5
ag5
ag7
ag5
ag7
ag7
ag9
ag7
ag7
ag7
ag7
ag7
ag9
ag9
ag5
ag5
ag5
ag7
ag7
ag5
ag5
ag5
ag5
ag9
ag5
ag9
ag9
ag5
ag9
ag5
ag7
ag7
ag5
ag5
ag5
ag5
ag5
ag9
ag9
ag5
ag5
ag7
ag7
ag7
ag5
ag5
ag5
ag9
ag5
ag5
ag5
ag5
ag5
ag5
ag5
ag5
ag5
ag9
ag9
ag9
ag7
ag7
ag5
ag7
ag7
ag5
ag5
ag5
ag5
ag7
ag9
ag7
ag7
ag7
ag7
ag5
ag7
ag7
ag5
ag9
ag9
ag9
ag7
ag15
ag5
ag5
ag5
ag5
ag5
ag7
ag5
ag9
ag5
ag7
ag7
ag7
ag7
ag9
ag9
ag9
ag9
ag7
ag5
ag5
ag5
ag5
ag5
ag5
ag5
ag5
ag5
aa(lp82
g5
ag5
ag5
ag5
ag5
ag5
ag5
ag5
ag5
ag5
ag5
ag5
ag5
ag5
ag5
ag5
ag5
ag5
ag5
ag5
ag5
ag5
ag5
ag5
ag5
ag5
ag5
ag5
ag7
ag9
ag7
ag9
ag5
ag5
ag5
ag5
ag5
ag5
ag5
ag5
ag5
ag5
ag9
ag7
ag9
ag9
ag9
ag5
ag5
ag7
ag9
ag9
ag9
ag5
ag5
ag5
ag7
ag5
ag5
ag5
ag5
ag7
ag7
ag7
ag9
ag5
ag5
ag5
ag5
ag5
ag5
ag5
ag5
ag5
ag5
ag5
ag7
ag9
ag5
ag5
ag5
ag5
ag7
ag5
ag5
ag5
ag9
ag5
ag5
ag5
ag5
ag5
ag5
ag5
ag5
ag5
ag5
ag9
ag9
ag7
ag5
ag5
ag7
ag5
ag5
ag5
ag5
ag5
ag7
ag9
ag7
ag7
ag7
ag5
ag5
ag7
ag5
ag9
ag9
ag9
ag7
ag9
ag7
ag5
ag7
ag7
ag7
ag5
ag5
ag5
ag5
ag9
ag9
ag7
ag7
ag7
ag9
ag7
ag5
ag5
ag5
ag5
ag5
ag5
ag5
ag5
ag5
ag5
ag5
ag5
aa(lp83
g5
ag5
ag5
ag5
ag5
ag5
ag5
ag5
ag5
ag5
ag5
ag5
ag5
ag5
ag5
ag5
ag5
ag5
ag5
ag5
ag5
ag5
ag5
ag5
ag5
ag5
ag5
ag5
ag7
ag9
ag7
ag5
ag5
ag5
ag5
ag5
ag5
ag5
ag5
ag5
ag5
ag9
ag7
ag9
ag7
ag7
ag9
ag9
ag5
ag7
ag5
ag5
ag5
ag5
ag5
ag5
ag5
ag5
ag5
ag5
ag5
ag5
ag5
ag7
ag5
ag5
ag5
ag5
ag5
ag5
ag5
ag5
ag5
ag5
ag5
ag5
ag5
ag7
ag5
ag5
ag5
ag9
ag5
ag5
ag9
ag7
ag7
ag7
ag7
ag5
ag5
ag5
ag5
ag5
ag5
ag5
ag7
ag7
ag9
ag5
ag7
ag5
ag7
ag5
ag5
ag5
ag5
ag5
ag5
ag9
ag7
ag7
ag5
ag7
ag5
ag5
ag7
ag7
ag7
ag9
ag9
ag7
ag7
ag7
ag7
ag5
ag7
ag7
ag5
ag7
ag7
ag15
ag9
ag9
ag7
ag7
ag15
ag5
ag5
ag5
ag5
ag5
ag5
ag5
ag5
ag5
ag5
ag5
ag5
ag5
aa(lp84
g5
ag5
ag5
ag5
ag5
ag5
ag5
ag5
ag5
ag5
ag5
ag5
ag5
ag5
ag5
ag5
ag5
ag5
ag5
ag5
ag5
ag5
ag5
ag5
ag5
ag5
ag5
ag5
ag7
ag9
ag7
ag7
ag5
ag5
ag5
ag5
ag5
ag5
ag5
ag5
ag5
ag7
ag9
ag7
ag9
ag7
ag5
ag9
ag5
ag5
ag5
ag5
ag5
ag5
ag5
ag5
ag5
ag5
ag5
ag5
ag5
ag5
ag5
ag7
ag7
ag5
ag5
ag5
ag5
ag5
ag5
ag5
ag5
ag5
ag5
ag5
ag7
ag5
ag5
ag5
ag5
ag7
ag9
ag9
ag7
ag7
ag7
ag7
ag7
ag5
ag5
ag5
ag5
ag5
ag5
ag7
ag7
ag7
ag7
ag9
ag5
ag7
ag5
ag5
ag5
ag5
ag5
ag5
ag5
ag5
ag9
ag5
ag5
ag5
ag7
ag7
ag5
ag7
ag7
ag7
ag9
ag7
ag7
ag7
ag5
ag5
ag9
ag5
ag7
ag5
ag9
ag9
ag9
ag7
ag9
ag9
ag9
ag5
ag5
ag5
ag5
ag5
ag5
ag5
ag5
ag5
ag5
ag5
ag5
ag5
aa(lp85
g5
ag5
ag5
ag5
ag5
ag5
ag5
ag5
ag5
ag5
ag5
ag5
ag5
ag5
ag5
ag5
ag5
ag5
ag5
ag5
ag5
ag5
ag5
ag5
ag5
ag5
ag5
ag5
ag7
ag9
ag7
ag7
ag5
ag5
ag5
ag5
ag5
ag7
ag5
ag5
ag5
ag7
ag7
ag5
ag7
ag7
ag7
ag5
ag5
ag5
ag5
ag5
ag5
ag5
ag5
ag5
ag5
ag5
ag5
ag5
ag5
ag7
ag7
ag5
ag5
ag5
ag5
ag5
ag5
ag5
ag5
ag5
ag5
ag5
ag5
ag5
ag5
ag5
ag5
ag5
ag7
ag9
ag9
ag5
ag7
ag7
ag5
ag7
ag7
ag5
ag5
ag5
ag7
ag7
ag7
ag7
ag7
ag5
ag5
ag5
ag9
ag9
ag9
ag5
ag5
ag5
ag5
ag5
ag5
ag5
ag5
ag5
ag5
ag7
ag7
ag9
ag9
ag9
ag5
ag9
ag7
ag7
ag7
ag7
ag5
ag9
ag9
ag5
ag7
ag5
ag5
ag5
ag9
ag9
ag9
ag9
ag7
ag5
ag5
ag5
ag5
ag5
ag5
ag5
ag5
ag5
ag5
ag5
ag5
ag5
aa(lp86
g5
ag5
ag5
ag5
ag5
ag5
ag5
ag5
ag5
ag5
ag5
ag5
ag5
ag5
ag5
ag5
ag5
ag5
ag5
ag5
ag5
ag5
ag5
ag5
ag5
ag5
ag5
ag5
ag9
ag7
ag9
ag7
ag5
ag5
ag5
ag5
ag7
ag7
ag7
ag7
ag5
ag5
ag7
ag7
ag7
ag5
ag5
ag5
ag5
ag5
ag5
ag5
ag5
ag5
ag5
ag5
ag5
ag5
ag5
ag5
ag5
ag5
ag7
ag5
ag5
ag5
ag5
ag5
ag5
ag5
ag5
ag5
ag5
ag5
ag5
ag5
ag5
ag5
ag5
ag5
ag9
ag7
ag7
ag7
ag7
ag7
ag5
ag5
ag5
ag5
ag5
ag5
ag7
ag7
ag7
ag7
ag5
ag5
ag5
ag5
ag5
ag7
ag5
ag5
ag5
ag5
ag5
ag5
ag5
ag5
ag5
ag5
ag5
ag5
ag7
ag5
ag7
ag7
ag9
ag7
ag7
ag7
ag9
ag7
ag7
ag7
ag9
ag7
ag5
ag5
ag5
ag7
ag7
ag9
ag5
ag7
ag7
ag5
ag5
ag5
ag5
ag5
ag5
ag5
ag5
ag5
ag5
ag5
ag5
ag5
aa(lp87
g5
ag5
ag5
ag5
ag5
ag5
ag5
ag5
ag5
ag5
ag5
ag5
ag5
ag5
ag5
ag5
ag5
ag5
ag5
ag5
ag5
ag5
ag5
ag5
ag5
ag5
ag5
ag5
ag5
ag9
ag9
ag5
ag5
ag5
ag7
ag7
ag7
ag7
ag7
ag7
ag7
ag7
ag7
ag7
ag5
ag5
ag5
ag5
ag5
ag5
ag5
ag5
ag5
ag5
ag5
ag5
ag5
ag5
ag5
ag5
ag7
ag7
ag5
ag5
ag5
ag5
ag5
ag5
ag5
ag5
ag5
ag5
ag5
ag9
ag5
ag5
ag9
ag5
ag7
ag9
ag7
ag9
ag5
ag7
ag5
ag5
ag5
ag5
ag5
ag5
ag5
ag7
ag7
ag7
ag5
ag7
ag5
ag5
ag5
ag5
ag7
ag5
ag5
ag5
ag5
ag5
ag5
ag5
ag5
ag5
ag5
ag5
ag5
ag7
ag7
ag7
ag7
ag7
ag7
ag7
ag7
ag7
ag9
ag9
ag7
ag7
ag7
ag5
ag5
ag5
ag5
ag5
ag7
ag5
ag5
ag5
ag5
ag5
ag5
ag5
ag5
ag5
ag5
ag5
ag5
ag5
ag5
ag5
ag5
ag5
aa(lp88
g5
ag5
ag5
ag5
ag5
ag5
ag5
ag5
ag5
ag5
ag5
ag5
ag5
ag5
ag5
ag5
ag5
ag5
ag5
ag5
ag5
ag5
ag5
ag5
ag5
ag5
ag5
ag5
ag7
ag5
ag5
ag5
ag5
ag5
ag7
ag15
ag7
ag7
ag7
ag7
ag7
ag7
ag9
ag7
ag5
ag5
ag5
ag5
ag5
ag5
ag5
ag5
ag5
ag5
ag5
ag5
ag5
ag5
ag5
ag7
ag5
ag5
ag5
ag5
ag5
ag5
ag5
ag5
ag5
ag5
ag5
ag7
ag7
ag9
ag7
ag9
ag5
ag7
ag5
ag5
ag7
ag9
ag7
ag7
ag7
ag5
ag5
ag5
ag5
ag5
ag5
ag5
ag5
ag7
ag5
ag5
ag7
ag7
ag5
ag5
ag5
ag7
ag5
ag5
ag5
ag5
ag5
ag5
ag5
ag5
ag5
ag9
ag7
ag5
ag7
ag7
ag7
ag7
ag7
ag7
ag7
ag7
ag7
ag7
ag7
ag7
ag9
ag7
ag5
ag5
ag5
ag5
ag5
ag5
ag5
ag5
ag5
ag5
ag5
ag5
ag5
ag5
ag5
ag5
ag5
ag5
ag5
ag5
ag5
ag5
aa(lp89
g5
ag5
ag5
ag5
ag5
ag5
ag5
ag5
ag5
ag5
ag5
ag5
ag5
ag5
ag5
ag5
ag5
ag5
ag5
ag5
ag5
ag5
ag5
ag5
ag5
ag5
ag5
ag5
ag5
ag7
ag5
ag5
ag5
ag7
ag7
ag7
ag5
ag5
ag7
ag7
ag7
ag5
ag7
ag5
ag5
ag5
ag5
ag5
ag5
ag5
ag5
ag5
ag5
ag5
ag5
ag5
ag5
ag5
ag5
ag5
ag7
ag7
ag5
ag7
ag7
ag5
ag5
ag5
ag5
ag5
ag5
ag7
ag7
ag9
ag9
ag5
ag7
ag7
ag7
ag7
ag7
ag7
ag7
ag7
ag7
ag5
ag5
ag5
ag5
ag5
ag5
ag5
ag5
ag5
ag7
ag7
ag7
ag5
ag5
ag5
ag5
ag5
ag7
ag7
ag7
ag5
ag9
ag5
ag5
ag5
ag5
ag9
ag7
ag7
ag7
ag7
ag7
ag7
ag7
ag7
ag7
ag7
ag7
ag7
ag7
ag7
ag7
ag5
ag5
ag5
ag5
ag5
ag5
ag5
ag5
ag5
ag5
ag5
ag5
ag5
ag5
ag5
ag5
ag5
ag5
ag5
ag5
ag5
ag5
ag5
aa(lp90
g5
ag5
ag5
ag5
ag5
ag5
ag5
ag5
ag5
ag5
ag5
ag5
ag5
ag5
ag5
ag5
ag5
ag5
ag5
ag5
ag5
ag5
ag5
ag5
ag5
ag5
ag9
ag5
ag7
ag7
ag5
ag5
ag5
ag7
ag7
ag9
ag5
ag5
ag5
ag7
ag5
ag5
ag5
ag5
ag5
ag5
ag5
ag5
ag5
ag5
ag5
ag5
ag5
ag5
ag7
ag7
ag7
ag5
ag7
ag5
ag5
ag5
ag7
ag5
ag7
ag7
ag5
ag5
ag5
ag5
ag5
ag5
ag9
ag9
ag9
ag9
ag9
ag7
ag7
ag7
ag7
ag7
ag7
ag7
ag7
ag7
ag7
ag5
ag5
ag7
ag5
ag5
ag7
ag7
ag7
ag7
ag7
ag7
ag5
ag5
ag5
ag5
ag5
ag5
ag9
ag9
ag5
ag9
ag9
ag5
ag5
ag9
ag9
ag7
ag7
ag7
ag7
ag7
ag7
ag7
ag7
ag7
ag5
ag7
ag7
ag7
ag7
ag5
ag5
ag5
ag5
ag5
ag5
ag5
ag5
ag5
ag5
ag5
ag5
ag5
ag5
ag5
ag5
ag5
ag5
ag5
ag5
ag5
ag5
ag5
aa(lp91
g5
ag5
ag5
ag5
ag5
ag5
ag5
ag5
ag5
ag5
ag5
ag5
ag5
ag5
ag5
ag5
ag5
ag5
ag5
ag5
ag5
ag5
ag5
ag5
ag5
ag9
ag7
ag9
ag5
ag5
ag5
ag5
ag5
ag9
ag7
ag5
ag9
ag5
ag5
ag5
ag5
ag5
ag5
ag5
ag5
ag5
ag5
ag5
ag5
ag5
ag5
ag5
ag7
ag7
ag7
ag5
ag7
ag7
ag7
ag5
ag5
ag5
ag5
ag7
ag7
ag5
ag5
ag5
ag5
ag5
ag5
ag5
ag5
ag9
ag9
ag9
ag9
ag7
ag7
ag7
ag7
ag5
ag7
ag7
ag5
ag7
ag7
ag5
ag7
ag5
ag7
ag7
ag7
ag7
ag5
ag7
ag5
ag5
ag5
ag5
ag5
ag5
ag5
ag5
ag5
ag9
ag5
ag7
ag7
ag5
ag5
ag5
ag7
ag7
ag7
ag9
ag9
ag7
ag7
ag5
ag5
ag5
ag7
ag5
ag5
ag7
ag5
ag5
ag5
ag5
ag5
ag5
ag5
ag5
ag5
ag5
ag5
ag5
ag5
ag5
ag5
ag5
ag5
ag5
ag5
ag5
ag5
ag5
ag5
ag5
aa(lp92
g5
ag5
ag5
ag5
ag5
ag5
ag5
ag5
ag5
ag5
ag5
ag5
ag5
ag5
ag5
ag5
ag5
ag5
ag5
ag5
ag5
ag5
ag5
ag5
ag9
ag9
ag9
ag7
ag9
ag5
ag5
ag5
ag7
ag9
ag9
ag9
ag5
ag5
ag5
ag5
ag5
ag5
ag5
ag5
ag5
ag5
ag5
ag5
ag5
ag5
ag5
ag5
ag7
ag7
ag7
ag7
ag7
ag7
ag5
ag5
ag5
ag5
ag5
ag7
ag7
ag5
ag5
ag5
ag5
ag5
ag5
ag5
ag5
ag9
ag7
ag15
ag9
ag9
ag7
ag5
ag5
ag5
ag7
ag9
ag7
ag7
ag7
ag7
ag7
ag5
ag5
ag7
ag9
ag5
ag5
ag5
ag5
ag5
ag5
ag5
ag5
ag5
ag5
ag5
ag5
ag5
ag5
ag5
ag5
ag5
ag5
ag5
ag5
ag5
ag5
ag9
ag7
ag7
ag5
ag5
ag5
ag7
ag5
ag5
ag7
ag5
ag5
ag5
ag5
ag5
ag5
ag5
ag5
ag5
ag5
ag5
ag5
ag5
ag5
ag5
ag5
ag5
ag5
ag5
ag5
ag5
ag5
ag5
ag5
ag5
aa(lp93
g5
ag5
ag5
ag5
ag5
ag5
ag5
ag5
ag5
ag5
ag5
ag5
ag5
ag5
ag5
ag5
ag5
ag5
ag5
ag5
ag5
ag5
ag5
ag7
ag9
ag7
ag5
ag5
ag5
ag5
ag5
ag5
ag7
ag5
ag9
ag9
ag5
ag5
ag5
ag5
ag5
ag5
ag5
ag5
ag5
ag5
ag5
ag5
ag5
ag5
ag5
ag5
ag7
ag7
ag7
ag9
ag9
ag9
ag9
ag9
ag7
ag7
ag7
ag7
ag15
ag5
ag5
ag5
ag5
ag5
ag5
ag5
ag7
ag9
ag7
ag7
ag7
ag9
ag9
ag5
ag5
ag5
ag9
ag9
ag9
ag7
ag7
ag9
ag5
ag9
ag7
ag9
ag5
ag5
ag5
ag5
ag5
ag5
ag5
ag5
ag5
ag5
ag5
ag5
ag5
ag5
ag5
ag5
ag5
ag5
ag5
ag5
ag5
ag5
ag5
ag15
ag5
ag5
ag5
ag5
ag5
ag5
ag7
ag7
ag7
ag5
ag7
ag5
ag5
ag5
ag5
ag5
ag5
ag5
ag5
ag5
ag5
ag5
ag5
ag5
ag5
ag5
ag5
ag5
ag5
ag5
ag5
ag5
ag5
ag5
aa(lp94
g5
ag5
ag5
ag5
ag5
ag5
ag5
ag5
ag5
ag5
ag5
ag5
ag5
ag5
ag5
ag5
ag5
ag5
ag5
ag5
ag5
ag5
ag7
ag7
ag9
ag7
ag5
ag5
ag5
ag5
ag5
ag5
ag5
ag5
ag5
ag9
ag9
ag9
ag5
ag5
ag5
ag5
ag5
ag5
ag5
ag5
ag5
ag5
ag5
ag5
ag5
ag5
ag7
ag5
ag7
ag7
ag7
ag5
ag5
ag9
ag5
ag7
ag7
ag5
ag7
ag5
ag5
ag5
ag5
ag5
ag5
ag5
ag7
ag9
ag9
ag9
ag7
ag7
ag9
ag7
ag5
ag9
ag5
ag5
ag7
ag9
ag7
ag7
ag9
ag7
ag9
ag5
ag5
ag5
ag5
ag5
ag5
ag5
ag5
ag5
ag5
ag5
ag5
ag5
ag5
ag5
ag5
ag5
ag5
ag5
ag5
ag5
ag5
ag5
ag5
ag5
ag5
ag5
ag5
ag5
ag5
ag5
ag7
ag7
ag7
ag7
ag7
ag7
ag7
ag5
ag5
ag5
ag5
ag5
ag5
ag5
ag5
ag5
ag5
ag5
ag5
ag5
ag5
ag5
ag5
ag5
ag5
ag5
ag5
ag5
aa(lp95
g5
ag5
ag5
ag5
ag5
ag5
ag5
ag5
ag5
ag5
ag5
ag5
ag5
ag5
ag5
ag5
ag5
ag5
ag5
ag5
ag5
ag5
ag7
ag9
ag9
ag7
ag7
ag5
ag5
ag5
ag5
ag5
ag5
ag5
ag5
ag9
ag7
ag7
ag5
ag5
ag5
ag5
ag5
ag5
ag5
ag5
ag5
ag5
ag5
ag5
ag5
ag5
ag5
ag7
ag5
ag5
ag5
ag5
ag5
ag9
ag7
ag5
ag5
ag5
ag5
ag7
ag5
ag5
ag5
ag5
ag5
ag5
ag7
ag9
ag7
ag9
ag7
ag7
ag5
ag7
ag9
ag5
ag9
ag7
ag15
ag5
ag9
ag5
ag5
ag9
ag9
ag5
ag5
ag5
ag5
ag5
ag5
ag5
ag5
ag5
ag5
ag5
ag5
ag5
ag5
ag5
ag5
ag5
ag5
ag5
ag5
ag5
ag5
ag5
ag5
ag5
ag5
ag5
ag5
ag5
ag5
ag5
ag15
ag7
ag7
ag7
ag7
ag5
ag7
ag7
ag5
ag5
ag5
ag5
ag5
ag5
ag5
ag5
ag5
ag5
ag5
ag5
ag5
ag5
ag5
ag5
ag5
ag5
ag5
ag5
aa(lp96
g5
ag5
ag5
ag5
ag5
ag5
ag5
ag5
ag5
ag5
ag5
ag5
ag5
ag5
ag5
ag5
ag5
ag5
ag7
ag5
ag5
ag9
ag9
ag5
ag7
ag5
ag7
ag5
ag5
ag5
ag5
ag5
ag5
ag7
ag7
ag9
ag9
ag7
ag5
ag5
ag5
ag5
ag5
ag5
ag5
ag5
ag5
ag5
ag5
ag5
ag5
ag5
ag5
ag5
ag7
ag5
ag5
ag5
ag9
ag7
ag7
ag7
ag7
ag7
ag7
ag5
ag5
ag5
ag5
ag5
ag5
ag7
ag9
ag7
ag7
ag7
ag7
ag7
ag5
ag7
ag7
ag7
ag9
ag9
ag7
ag7
ag9
ag5
ag7
ag7
ag5
ag5
ag5
ag5
ag5
ag5
ag5
ag5
ag5
ag5
ag5
ag5
ag5
ag5
ag5
ag5
ag5
ag5
ag5
ag5
ag5
ag5
ag5
ag5
ag5
ag5
ag5
ag5
ag5
ag5
ag5
ag5
ag7
ag7
ag7
ag7
ag7
ag5
ag7
ag7
ag5
ag5
ag5
ag5
ag5
ag5
ag5
ag5
ag5
ag5
ag5
ag5
ag5
ag5
ag5
ag5
ag5
ag5
ag5
ag5
aa(lp97
g5
ag5
ag5
ag5
ag5
ag5
ag5
ag5
ag5
ag5
ag5
ag5
ag5
ag5
ag5
ag5
ag5
ag7
ag5
ag9
ag9
ag7
ag9
ag9
ag5
ag7
ag5
ag5
ag5
ag5
ag5
ag5
ag5
ag5
ag7
ag9
ag7
ag9
ag5
ag5
ag5
ag5
ag5
ag5
ag5
ag5
ag5
ag5
ag5
ag5
ag5
ag5
ag5
ag5
ag5
ag7
ag7
ag5
ag5
ag5
ag7
ag7
ag5
ag5
ag5
ag5
ag5
ag5
ag5
ag5
ag5
ag7
ag15
ag7
ag7
ag7
ag5
ag7
ag7
ag7
ag7
ag5
ag7
ag7
ag5
ag5
ag5
ag7
ag5
ag5
ag5
ag5
ag5
ag5
ag5
ag5
ag5
ag5
ag5
ag5
ag5
ag5
ag5
ag5
ag5
ag5
ag5
ag5
ag5
ag5
ag5
ag5
ag5
ag5
ag5
ag5
ag5
ag5
ag5
ag5
ag5
ag5
ag5
ag5
ag5
ag5
ag5
ag7
ag5
ag5
ag5
ag5
ag5
ag5
ag5
ag5
ag5
ag5
ag5
ag5
ag5
ag5
ag5
ag5
ag5
ag5
ag5
ag5
ag5
ag5
aa(lp98
g5
ag5
ag5
ag5
ag5
ag5
ag5
ag5
ag5
ag5
ag5
ag5
ag5
ag5
ag5
ag7
ag7
ag5
ag5
ag15
ag7
ag7
ag7
ag5
ag7
ag5
ag5
ag5
ag5
ag5
ag5
ag5
ag5
ag7
ag7
ag7
ag7
ag7
ag5
ag15
ag5
ag5
ag5
ag5
ag5
ag5
ag5
ag5
ag5
ag5
ag5
ag5
ag5
ag5
ag7
ag5
ag7
ag7
ag7
ag7
ag5
ag5
ag7
ag7
ag5
ag5
ag5
ag5
ag5
ag5
ag5
ag7
ag7
ag7
ag7
ag5
ag5
ag5
ag5
ag5
ag5
ag5
ag5
ag7
ag5
ag5
ag5
ag5
ag5
ag5
ag5
ag5
ag5
ag5
ag5
ag5
ag5
ag5
ag5
ag5
ag5
ag5
ag5
ag5
ag5
ag5
ag5
ag5
ag5
ag5
ag5
ag5
ag5
ag5
ag5
ag5
ag5
ag5
ag5
ag5
ag5
ag5
ag5
ag5
ag5
ag5
ag5
ag5
ag5
ag5
ag5
ag5
ag5
ag5
ag5
ag5
ag5
ag5
ag5
ag5
ag5
ag5
ag5
ag5
ag5
ag5
ag5
ag5
ag5
ag5
aa(lp99
g5
ag5
ag5
ag5
ag5
ag5
ag5
ag5
ag5
ag5
ag5
ag5
ag5
ag5
ag7
ag7
ag5
ag5
ag5
ag5
ag5
ag5
ag5
ag5
ag5
ag5
ag5
ag5
ag5
ag5
ag5
ag5
ag5
ag5
ag7
ag7
ag7
ag7
ag7
ag7
ag5
ag5
ag5
ag5
ag7
ag7
ag7
ag5
ag5
ag5
ag5
ag5
ag5
ag5
ag5
ag5
ag7
ag7
ag7
ag7
ag5
ag7
ag7
ag7
ag7
ag7
ag5
ag5
ag5
ag5
ag5
ag5
ag7
ag7
ag7
ag5
ag5
ag5
ag5
ag5
ag5
ag7
ag7
ag7
ag5
ag5
ag5
ag5
ag5
ag5
ag5
ag5
ag5
ag5
ag5
ag5
ag5
ag5
ag5
ag5
ag5
ag5
ag5
ag5
ag5
ag5
ag5
ag5
ag5
ag5
ag5
ag5
ag5
ag5
ag5
ag5
ag5
ag5
ag5
ag5
ag5
ag5
ag5
ag5
ag5
ag5
ag5
ag5
ag5
ag5
ag5
ag5
ag5
ag5
ag5
ag5
ag5
ag5
ag5
ag5
ag5
ag5
ag5
ag5
ag5
ag5
ag5
ag5
ag5
ag5
aa(lp100
g5
ag5
ag5
ag5
ag5
ag5
ag5
ag5
ag5
ag5
ag5
ag5
ag5
ag5
ag5
ag5
ag5
ag5
ag5
ag5
ag5
ag5
ag5
ag5
ag5
ag5
ag5
ag5
ag5
ag5
ag5
ag5
ag5
ag5
ag5
ag5
ag7
ag7
ag7
ag7
ag7
ag5
ag5
ag7
ag7
ag7
ag5
ag5
ag5
ag5
ag5
ag5
ag5
ag5
ag5
ag5
ag7
ag5
ag7
ag7
ag7
ag7
ag7
ag7
ag5
ag5
ag5
ag5
ag5
ag5
ag5
ag7
ag7
ag7
ag15
ag5
ag5
ag7
ag5
ag5
ag5
ag5
ag7
ag7
ag5
ag5
ag5
ag5
ag5
ag5
ag5
ag5
ag5
ag5
ag5
ag5
ag5
ag5
ag5
ag5
ag5
ag5
ag5
ag5
ag5
ag5
ag5
ag5
ag5
ag5
ag5
ag5
ag5
ag5
ag5
ag5
ag5
ag5
ag5
ag5
ag5
ag5
ag5
ag5
ag5
ag5
ag5
ag5
ag5
ag5
ag5
ag5
ag5
ag5
ag5
ag5
ag5
ag5
ag5
ag5
ag5
ag5
ag5
ag5
ag5
ag5
ag5
ag5
ag5
ag5
aa(lp101
g5
ag5
ag5
ag5
ag5
ag5
ag5
ag5
ag5
ag5
ag5
ag5
ag5
ag5
ag5
ag5
ag5
ag5
ag5
ag5
ag5
ag5
ag5
ag5
ag5
ag5
ag5
ag5
ag5
ag5
ag5
ag5
ag5
ag5
ag5
ag5
ag5
ag5
ag7
ag5
ag7
ag7
ag7
ag7
ag7
ag5
ag5
ag5
ag5
ag5
ag5
ag5
ag5
ag5
ag5
ag5
ag5
ag5
ag7
ag7
ag7
ag7
ag7
ag7
ag5
ag5
ag5
ag5
ag5
ag5
ag5
ag5
ag7
ag5
ag5
ag5
ag7
ag7
ag9
ag9
ag5
ag5
ag7
ag9
ag5
ag7
ag5
ag5
ag5
ag5
ag5
ag5
ag5
ag5
ag5
ag5
ag5
ag5
ag5
ag5
ag5
ag5
ag5
ag5
ag5
ag5
ag5
ag5
ag5
ag5
ag5
ag5
ag5
ag5
ag5
ag5
ag5
ag5
ag5
ag5
ag5
ag5
ag5
ag5
ag5
ag5
ag5
ag5
ag5
ag5
ag5
ag5
ag5
ag5
ag5
ag5
ag5
ag5
ag5
ag5
ag5
ag5
ag5
ag5
ag5
ag5
ag5
ag5
ag5
ag5
aa(lp102
g5
ag5
ag5
ag5
ag5
ag5
ag5
ag5
ag5
ag5
ag5
ag5
ag5
ag5
ag5
ag5
ag5
ag5
ag5
ag5
ag5
ag5
ag5
ag5
ag5
ag5
ag5
ag5
ag5
ag5
ag5
ag5
ag5
ag5
ag5
ag5
ag5
ag5
ag5
ag7
ag5
ag5
ag7
ag7
ag9
ag5
ag5
ag5
ag5
ag5
ag5
ag5
ag5
ag5
ag5
ag5
ag5
ag7
ag7
ag7
ag5
ag7
ag7
ag7
ag5
ag7
ag7
ag5
ag5
ag5
ag5
ag5
ag5
ag7
ag5
ag5
ag7
ag7
ag7
ag9
ag5
ag5
ag9
ag9
ag7
ag7
ag7
ag5
ag5
ag5
ag5
ag5
ag5
ag5
ag5
ag5
ag5
ag5
ag5
ag5
ag5
ag5
ag5
ag5
ag5
ag5
ag5
ag5
ag5
ag5
ag5
ag5
ag5
ag5
ag5
ag5
ag5
ag5
ag5
ag5
ag5
ag5
ag5
ag5
ag5
ag5
ag5
ag5
ag5
ag5
ag5
ag5
ag5
ag5
ag5
ag5
ag5
ag5
ag5
ag5
ag5
ag5
ag5
ag5
ag5
ag5
ag5
ag5
ag5
ag5
aa(lp103
g5
ag5
ag5
ag5
ag5
ag5
ag5
ag5
ag5
ag5
ag5
ag5
ag5
ag5
ag5
ag5
ag5
ag5
ag5
ag5
ag5
ag5
ag5
ag5
ag5
ag5
ag5
ag5
ag5
ag5
ag5
ag5
ag5
ag5
ag5
ag5
ag5
ag5
ag7
ag5
ag5
ag5
ag5
ag7
ag5
ag7
ag5
ag5
ag5
ag5
ag5
ag5
ag5
ag5
ag5
ag5
ag5
ag7
ag5
ag7
ag5
ag5
ag5
ag7
ag7
ag7
ag7
ag7
ag5
ag5
ag5
ag7
ag7
ag7
ag7
ag7
ag7
ag7
ag9
ag5
ag9
ag5
ag5
ag5
ag7
ag5
ag5
ag5
ag5
ag5
ag5
ag5
ag5
ag5
ag5
ag5
ag5
ag5
ag5
ag5
ag5
ag5
ag5
ag5
ag5
ag5
ag5
ag5
ag5
ag5
ag5
ag5
ag5
ag5
ag5
ag5
ag5
ag5
ag5
ag5
ag5
ag5
ag5
ag5
ag5
ag5
ag5
ag5
ag5
ag5
ag5
ag5
ag5
ag5
ag5
ag5
ag5
ag5
ag5
ag5
ag5
ag5
ag5
ag5
ag5
ag5
ag5
ag5
ag5
ag5
aa(lp104
g5
ag5
ag5
ag5
ag5
ag5
ag5
ag5
ag5
ag5
ag5
ag5
ag5
ag5
ag5
ag5
ag5
ag5
ag5
ag5
ag5
ag5
ag5
ag5
ag5
ag5
ag5
ag5
ag5
ag5
ag5
ag5
ag5
ag5
ag5
ag5
ag5
ag5
ag5
ag7
ag7
ag9
ag9
ag5
ag5
ag7
ag5
ag5
ag5
ag5
ag5
ag5
ag5
ag5
ag5
ag5
ag5
ag5
ag5
ag5
ag7
ag5
ag5
ag5
ag5
ag7
ag7
ag7
ag5
ag9
ag9
ag9
ag7
ag7
ag7
ag7
ag7
ag5
ag9
ag9
ag7
ag9
ag5
ag5
ag5
ag5
ag5
ag5
ag5
ag5
ag5
ag5
ag5
ag5
ag5
ag5
ag5
ag5
ag5
ag5
ag5
ag5
ag5
ag5
ag5
ag5
ag5
ag5
ag5
ag5
ag5
ag5
ag5
ag5
ag5
ag5
ag5
ag5
ag5
ag5
ag5
ag5
ag5
ag5
ag5
ag5
ag5
ag5
ag5
ag5
ag5
ag5
ag5
ag5
ag5
ag5
ag5
ag5
ag5
ag5
ag5
ag5
ag5
ag5
ag5
ag5
ag5
ag5
ag5
ag5
aa(lp105
g5
ag5
ag5
ag5
ag5
ag5
ag5
ag5
ag5
ag5
ag5
ag5
ag5
ag5
ag5
ag5
ag5
ag5
ag5
ag5
ag5
ag5
ag5
ag5
ag5
ag5
ag5
ag5
ag5
ag5
ag5
ag5
ag5
ag5
ag5
ag5
ag5
ag5
ag5
ag5
ag7
ag5
ag5
ag5
ag5
ag5
ag5
ag5
ag5
ag5
ag5
ag5
ag5
ag5
ag5
ag5
ag5
ag5
ag7
ag7
ag5
ag5
ag5
ag5
ag5
ag5
ag7
ag9
ag7
ag7
ag5
ag7
ag7
ag7
ag7
ag5
ag5
ag9
ag5
ag9
ag9
ag7
ag9
ag5
ag5
ag5
ag5
ag5
ag5
ag5
ag5
ag5
ag5
ag5
ag5
ag5
ag5
ag5
ag5
ag5
ag5
ag5
ag5
ag5
ag5
ag5
ag5
ag5
ag5
ag5
ag5
ag5
ag5
ag5
ag5
ag5
ag5
ag5
ag5
ag5
ag5
ag5
ag5
ag5
ag5
ag5
ag5
ag5
ag5
ag5
ag5
ag5
ag5
ag5
ag5
ag5
ag5
ag5
ag5
ag5
ag5
ag5
ag5
ag5
ag5
ag5
ag5
ag5
ag5
ag5
aa(lp106
g5
ag5
ag5
ag5
ag5
ag5
ag5
ag5
ag5
ag5
ag5
ag5
ag5
ag5
ag5
ag5
ag5
ag5
ag5
ag5
ag5
ag5
ag5
ag5
ag5
ag5
ag5
ag5
ag5
ag5
ag5
ag5
ag5
ag5
ag5
ag5
ag5
ag5
ag5
ag5
ag5
ag5
ag5
ag5
ag5
ag5
ag5
ag5
ag5
ag5
ag5
ag5
ag5
ag5
ag5
ag5
ag5
ag7
ag7
ag7
ag7
ag7
ag5
ag5
ag5
ag5
ag7
ag7
ag7
ag7
ag7
ag7
ag7
ag7
ag7
ag7
ag7
ag5
ag5
ag9
ag9
ag9
ag7
ag5
ag5
ag5
ag5
ag5
ag5
ag5
ag5
ag5
ag5
ag5
ag5
ag5
ag5
ag5
ag5
ag5
ag5
ag5
ag5
ag5
ag5
ag5
ag5
ag5
ag5
ag5
ag5
ag5
ag5
ag5
ag5
ag5
ag5
ag5
ag5
ag5
ag5
ag5
ag5
ag5
ag5
ag5
ag5
ag5
ag5
ag5
ag5
ag5
ag5
ag5
ag5
ag5
ag5
ag5
ag5
ag5
ag5
ag5
ag5
ag5
ag5
ag5
ag5
ag5
ag5
ag5
aa(lp107
g5
ag5
ag5
ag5
ag5
ag5
ag5
ag5
ag5
ag5
ag5
ag5
ag5
ag5
ag5
ag5
ag5
ag5
ag5
ag5
ag5
ag5
ag5
ag5
ag5
ag5
ag5
ag5
ag5
ag5
ag5
ag5
ag5
ag5
ag5
ag5
ag5
ag5
ag5
ag5
ag5
ag5
ag5
ag5
ag5
ag5
ag5
ag5
ag5
ag5
ag5
ag5
ag5
ag5
ag5
ag5
ag5
ag5
ag5
ag5
ag5
ag5
ag5
ag5
ag5
ag5
ag5
ag5
ag5
ag5
ag5
ag5
ag5
ag5
ag5
ag5
ag5
ag5
ag5
ag5
ag5
ag5
ag5
ag5
ag5
ag5
ag5
ag5
ag5
ag5
ag5
ag5
ag5
ag5
ag5
ag5
ag5
ag5
ag5
ag5
ag5
ag5
ag5
ag5
ag5
ag5
ag5
ag5
ag5
ag5
ag5
ag5
ag5
ag5
ag5
ag5
ag5
ag5
ag5
ag5
ag5
ag5
ag5
ag5
ag5
ag5
ag5
ag5
ag5
ag5
ag5
ag5
ag5
ag5
ag5
ag5
ag5
ag5
ag5
ag5
ag5
ag5
ag5
ag5
ag5
ag5
ag5
ag5
ag5
ag5
aasS'cities'
p108
(lp109
S'wira'
p110
aS'lmnidbca'
p111
aS'wdei'
p112
aS'lnwtra'
p113
aS'eyuha'
p114
aS'zxyvwtrs'
p115
aS'zxyvwturs'
p116
aS'ogdi'
p117
aS'vnsp'
p118
aS'trha'
p119
aS'inytr'
p120
aS'wari'
p121
aS'gdsa'
p122
aS'oluydeia'
p123
aS'eyuha'
p124
aS'zyvrsnolmgd'
p125
aS'nrldbs'
p126
aS'oaeui'
p127
aS'dzxyvwturs'
p128
aS'teua'
p129
aS'zyvtrs'
p130
aS'gtrpl'
p131
aS'wema'
p132
aS'luieya'
p133
aS'dzyvrs'
p134
aS'weia'
p135
aS'aeui'
p136
aS'odal'
p137
aS'nywdia'
p138
aS'gdsa'
p139
aS'tmbc'
p140
aS'eiya'
p141
aS'aeuyi'
p142
aS'lnmjkhigdey'
p143
aS'odei'
p144
aS'zyvtursnolm'
p145
aS'oyha'
p146
aS'nrldm'
p147
aS'onmjkifg'
p148
aS'oyha'
p149
aS'onmjkhigda'
p150
aS'ogdia'
p151
aS'ogdia'
p152
aS'aeuyi'
p153
aS'oluydeia'
p154
aS'frsi'
p155
aS'oeuha'
p156
aS'frsi'
p157
aS'oeiya'
p158
aS'lmjifgjebc'
p159
aS'gtrpl'
p160
aS'yvwtra'
p161
aS'onmjingdi'
p162
aS'trha'
p163
aS'gdni'
p164
aS'gtrpl'
p165
aS'nlrt'
p166
aS'teua'
p167
aS'rldm'
p168
aS'gdni'
p169
aS'eyuha'
p170
aS'eiya'
p171
aS'niwdeia'
p172
aS'ogdi'
p173
aS'niwdei'
p174
aS'wari'
p175
aS'aeuyi'
p176
aS'dyvwturs'
p177
aS'vnsp'
p178
aS'frsi'
p179
aS'waei'
p180
aS'uhiteya'
p181
aS'zxyvwturs'
p182
aS'ntera'
p183
aS'onmjkhigdbi'
p184
aS'inytr'
p185
aS'yvwtra'
p186
aS'eyuha'
p187
aS'rldm'
p188
aS'tmbc'
p189
aS'lmjifgjebc'
p190
aS'aeyi'
p191
aS'gtrpl'
p192
aS'nldr'
p193
aS'ebcaf'
p194
aS'trha'
p195
aS'eiya'
p196
aS'lnwtrs'
p197
aS'vnsp'
p198
aS'gdsa'
p199
aS'oluierya'
p200
aS'vnsp'
p201
aS'waei'
p202
asS'name'
p203
g202
sb.